Archive member included because of file (symbol)

c:/program files (x86)/arm-none-eabi-gcc-4_6/bin/../lib/gcc/arm-none-eabi/4.6.2/armv7-m\libgcc.a(_arm_addsubsf3.o)
                              ..\..\src\uKernel\stats.o (__aeabi_ui2f)
c:/program files (x86)/arm-none-eabi-gcc-4_6/bin/../lib/gcc/arm-none-eabi/4.6.2/armv7-m\libgcc.a(_arm_muldivsf3.o)
                              ..\..\src\uKernel\stats.o (__aeabi_fmul)
c:/program files (x86)/arm-none-eabi-gcc-4_6/bin/../lib/gcc/arm-none-eabi/4.6.2/../../../../arm-none-eabi/lib/armv7-m\libg.a(lib_a-memcpy.o)
                              ..\..\src\uKernel\main.o (memcpy)

Allocating common symbols
Common symbol       size              file

Stack3              0x578             ..\..\src\uKernel\main.o
r3                  0x4               ..\..\src\uKernel\port.o
highestTCB          0x4               ..\..\src\uKernel\task.o
currentTCB          0x4               ..\..\src\uKernel\task.o
ReadyArray          0x80              ..\..\src\uKernel\task.o
taskMatrixQueue     0x4               ..\..\src\uKernel\main.o
r0                  0x4               ..\..\src\uKernel\port.o
utilizations        0x190             ..\..\src\uKernel\stats.o
StackMatrix         0x578             ..\..\src\uKernel\main.o
Stack2              0x578             ..\..\src\uKernel\main.o
allTasksLinked      0x8               ..\..\src\uKernel\task.o
TaskArray           0x80              ..\..\src\uKernel\task.o
Stack5              0x578             ..\..\src\uKernel\main.o
StatTaskStack       0x190             ..\..\src\uKernel\stats.o
heap1               0x3eb             ..\..\src\uKernel\heap.o
heap                0x4               ..\..\src\uKernel\heap.o
pulStack            0x400             ..\..\src\cmsis_boot\startup\cr_startup_lpc17.o
Stack1              0x578             ..\..\src\uKernel\main.o
StackADC            0x578             ..\..\src\uKernel\main.o
lr                  0x4               ..\..\src\uKernel\port.o
task6Q              0x4               ..\..\src\uKernel\main.o
IdleStack           0x258             ..\..\src\uKernel\main.o
s                   0x4               ..\..\src\uKernel\main.o
r2                  0x4               ..\..\src\uKernel\port.o
Stack6              0x578             ..\..\src\uKernel\main.o
CpuUtil             0x50              ..\..\src\uKernel\main.o
pc                  0x4               ..\..\src\uKernel\port.o
psr                 0x4               ..\..\src\uKernel\port.o
ReadyTaskBitmap     0x4               ..\..\src\uKernel\task.o
r12                 0x4               ..\..\src\uKernel\port.o
Stack4              0x578             ..\..\src\uKernel\main.o
r1                  0x4               ..\..\src\uKernel\port.o

Discarded input sections

 .data          0x00000000        0x0 ..\..\src\uKernel\main.o
 .bss           0x00000000        0x0 ..\..\src\uKernel\main.o
 .data          0x00000000        0x0 ..\..\src\uKernel\heap.o
 .data          0x00000000        0x0 ..\..\src\uKernel\hooks.o
 .bss           0x00000000        0x0 ..\..\src\uKernel\hooks.o
 .data          0x00000000        0x0 ..\..\src\uKernel\kernel.o
 .data          0x00000000        0x0 ..\..\src\uKernel\message_queue.o
 .bss           0x00000000        0x0 ..\..\src\uKernel\message_queue.o
 .data          0x00000000        0x0 ..\..\src\uKernel\port.o
 .bss           0x00000000        0x0 ..\..\src\uKernel\port.o
 .data          0x00000000        0x0 ..\..\src\uKernel\sem.o
 .bss           0x00000000        0x0 ..\..\src\uKernel\sem.o
 .data          0x00000000        0x0 ..\..\src\uKernel\task.o
 .data          0x00000000        0x0 ..\..\src\uKernel\time.o
 .data          0x00000000        0x0 ..\..\src\uKernel\wait_queue.o
 .bss           0x00000000        0x0 ..\..\src\uKernel\wait_queue.o
 .data          0x00000000        0x0 ..\..\lpc17xx_lib\source\lpc17xx_timer.o
 .bss           0x00000000        0x0 ..\..\lpc17xx_lib\source\lpc17xx_timer.o
 .data          0x00000000        0x0 ..\..\src\cmsis_boot\startup\cr_startup_lpc17.o
 .bss           0x00000000        0x0 ..\..\src\cmsis_boot\startup\cr_startup_lpc17.o
 .data          0x00000000        0x0 ..\..\lpc17xx_lib\source\lpc17xx_clkpwr.o
 .bss           0x00000000        0x0 ..\..\lpc17xx_lib\source\lpc17xx_clkpwr.o
 .bss           0x00000000        0x0 ..\..\src\cmsis_boot\system_LPC17xx.o
 .text          0x00000000      0x28c ..\..\src\cmsis\core_cm3.o
 .data          0x00000000        0x0 ..\..\src\cmsis\core_cm3.o
 .bss           0x00000000        0x0 ..\..\src\cmsis\core_cm3.o
 .data          0x00000000        0x0 ..\..\lpc17xx_lib\source\lpc17xx_libcfg_default.o
 .bss           0x00000000        0x0 ..\..\lpc17xx_lib\source\lpc17xx_libcfg_default.o
 .data          0x00000000        0x0 c:/program files (x86)/arm-none-eabi-gcc-4_6/bin/../lib/gcc/arm-none-eabi/4.6.2/armv7-m\libgcc.a(_arm_addsubsf3.o)
 .bss           0x00000000        0x0 c:/program files (x86)/arm-none-eabi-gcc-4_6/bin/../lib/gcc/arm-none-eabi/4.6.2/armv7-m\libgcc.a(_arm_addsubsf3.o)
 .data          0x00000000        0x0 c:/program files (x86)/arm-none-eabi-gcc-4_6/bin/../lib/gcc/arm-none-eabi/4.6.2/armv7-m\libgcc.a(_arm_muldivsf3.o)
 .bss           0x00000000        0x0 c:/program files (x86)/arm-none-eabi-gcc-4_6/bin/../lib/gcc/arm-none-eabi/4.6.2/armv7-m\libgcc.a(_arm_muldivsf3.o)
 .data          0x00000000        0x0 c:/program files (x86)/arm-none-eabi-gcc-4_6/bin/../lib/gcc/arm-none-eabi/4.6.2/../../../../arm-none-eabi/lib/armv7-m\libg.a(lib_a-memcpy.o)
 .bss           0x00000000        0x0 c:/program files (x86)/arm-none-eabi-gcc-4_6/bin/../lib/gcc/arm-none-eabi/4.6.2/../../../../arm-none-eabi/lib/armv7-m\libg.a(lib_a-memcpy.o)

Memory Configuration

Name             Origin             Length             Attributes
rom              0x00000000         0x00008000         xr
ram              0x10004000         0x00008000         xrw
ram1             0x2007c000         0x00008000         xrw
*default*        0x00000000         0xffffffff

Linker script and memory map

LOAD ..\..\src\uKernel\main.o
LOAD ..\..\src\uKernel\heap.o
LOAD ..\..\src\uKernel\hooks.o
LOAD ..\..\src\uKernel\kernel.o
LOAD ..\..\src\uKernel\message_queue.o
LOAD ..\..\src\uKernel\port.o
LOAD ..\..\src\uKernel\sem.o
LOAD ..\..\src\uKernel\stats.o
LOAD ..\..\src\uKernel\task.o
LOAD ..\..\src\uKernel\time.o
LOAD ..\..\src\uKernel\wait_queue.o
LOAD ..\..\lpc17xx_lib\source\lpc17xx_timer.o
LOAD ..\..\src\cmsis_boot\startup\cr_startup_lpc17.o
LOAD ..\..\lpc17xx_lib\source\lpc17xx_clkpwr.o
LOAD ..\..\src\cmsis_boot\system_LPC17xx.o
LOAD ..\..\src\cmsis\core_cm3.o
LOAD ..\..\lpc17xx_lib\source\lpc17xx_libcfg_default.o
                0x10008000                _eram = 0x10008000

.text           0x00000000     0x3a54
 *(.isr_vector .isr_vector.*)
 .isr_vector    0x00000000       0xcc ..\..\src\cmsis_boot\startup\cr_startup_lpc17.o
                0x00000000                g_pfnVectors
 *(.text .text.* .gnu.linkonce.t.*)
 .text          0x000000cc      0x6a4 ..\..\src\uKernel\main.o
                0x0000021c                main
                0x00000404                Task1
                0x00000474                ADC_IRQHandler
                0x00000484                ADC_Task
                0x00000498                TaskMatrix
                0x0000057c                Task2
                0x00000608                Task3
                0x000006c4                Task4
                0x000006f0                Task5
                0x00000734                Task6
 .text          0x00000770      0x1f8 ..\..\src\uKernel\heap.o
                0x000007f0                heapInit
                0x0000084c                portMalloc
                0x000008fc                portFree
                0x00000910                getHeapSize
 .text          0x00000968       0x18 ..\..\src\uKernel\hooks.o
                0x00000968                idleTaskHook
                0x00000974                contextSwitchHook
 .text          0x00000980      0x23c ..\..\src\uKernel\kernel.o
                0x00000a00                uKern_Init
                0x00000a18                StartOS
                0x00000a84                schedule
                0x00000b20                IdleTask
                0x00000b48                yield
 .text          0x00000bbc      0x3c0 ..\..\src\uKernel\message_queue.o
                0x00000c60                queueCreate
                0x00000d10                queueDelete
                0x00000d28                queueSendToTail
                0x00000de0                queueReceive
                0x00000ebc                queuePeek
                0x00000f08                queueGetNumberOfMessages
 .text          0x00000f7c      0x38c ..\..\src\uKernel\port.o
                0x00000ff8                StkInit
                0x0000107c                OSStartFirstTask
                0x00001098                start_first_task
                0x000010bc                OSTickStart
                0x000010d4                OSTickStop
                0x000010f8                OSTickConfig
                0x00001154                prvGetRegistersFromStack
                0x000011d0                cpsie
                0x000011dc                cpsid
                0x000011e8                context_switch
                0x00001218                hw_init
                0x00001254                HardFaultHndlr
                0x00001270                port_reset_stat_timer_val
                0x00001280                port_stat_timer_init
                0x000012f0                port_get_stat_timer_val
 .text          0x00001308      0x218 ..\..\src\uKernel\sem.o
                0x000013ac                sem_init
                0x000013e8                sem_free
                0x00001400                sem_get
                0x000014bc                sem_release
 .text          0x00001520      0x250 ..\..\src\uKernel\stats.o
                0x00001540                StatTask
                0x00001628                statsInit
                0x0000165c                getCpuUtilization
                0x00001674                stats_hook
 .text          0x00001770      0x4e0 ..\..\src\uKernel\task.o
                0x00001840                tasksInit
                0x000018d4                task_create
                0x00001a24                getTCBbyPrio
                0x00001a54                prioEnable
                0x00001aec                taskEnable
                0x00001b7c                prioDisable
                0x00001c20                idleTaskInit
 .text          0x00001c50      0x2a0 ..\..\src\uKernel\time.o
                0x00001dac                OSTick
                0x00001e40                TickTasks
                0x00001e4c                timeDelay
                0x00001ed8                getTickCount
 .text          0x00001ef0      0x2a8 ..\..\src\uKernel\wait_queue.o
                0x00002080                addTaskToWaitQueue
                0x000020e8                removeTaskFromWaitQueue
                0x00002150                removeHeadFromWaitQueue
 .text          0x00002198      0xb64 ..\..\lpc17xx_lib\source\lpc17xx_timer.o
                0x000022a8                TIM_GetIntStatus
                0x0000235c                TIM_GetIntCaptureStatus
                0x00002414                TIM_ClearIntPending
                0x000024b4                TIM_ClearIntCapturePending
                0x00002558                TIM_ConfigStructInit
                0x00002598                TIM_Init
                0x00002764                TIM_DeInit
                0x00002828                TIM_Cmd
                0x000028a0                TIM_ResetCounter
                0x0000290c                TIM_ConfigMatch
                0x00002ad8                TIM_UpdateMatchValue
                0x00002b70                TIM_ConfigCapture
                0x00002c78                TIM_GetCaptureValue
 .text          0x00002cfc       0xb8 ..\..\src\cmsis_boot\startup\cr_startup_lpc17.o
                0x00002cfc                ResetISR
                0x00002d5c                NMI_Handler
                0x00002d64                HardFault_Handler
                0x00002d6c                MemManage_Handler
                0x00002d74                BusFault_Handler
                0x00002d7c                UsageFault_Handler
                0x00002d84                SVCall_Handler
                0x00002d8c                DebugMon_Handler
                0x00002d94                PendSV_Handler
                0x00002d9c                SysTick_Handler
                0x00002da4                PWM1_IRQHandler
                0x00002da4                I2C1_IRQHandler
                0x00002da4                EINT2_IRQHandler
                0x00002da4                UART1_IRQHandler
                0x00002da4                EINT3_IRQHandler
                0x00002da4                CANActivity_IRQHandler
                0x00002da4                TIMER3_IRQHandler
                0x00002da4                UART0_IRQHandler
                0x00002da4                I2C0_IRQHandler
                0x00002da4                IntDefaultHandler
                0x00002da4                PLL0_IRQHandler
                0x00002da4                RIT_IRQHandler
                0x00002da4                PLL1_IRQHandler
                0x00002da4                SSP0_IRQHandler
                0x00002da4                I2S_IRQHandler
                0x00002da4                I2C2_IRQHandler
                0x00002da4                RTC_IRQHandler
                0x00002da4                TIMER0_IRQHandler
                0x00002da4                SPI_IRQHandler
                0x00002da4                EINT1_IRQHandler
                0x00002da4                TIMER1_IRQHandler
                0x00002da4                UART2_IRQHandler
                0x00002da4                SSP1_IRQHandler
                0x00002da4                USB_IRQHandler
                0x00002da4                BOD_IRQHandler
                0x00002da4                USBActivity_IRQHandler
                0x00002da4                WDT_IRQHandler
                0x00002da4                QEI_IRQHandler
                0x00002da4                EINT0_IRQHandler
                0x00002da4                TIMER2_IRQHandler
                0x00002da4                DMA_IRQHandler
                0x00002da4                CAN_IRQHandler
                0x00002da4                UART3_IRQHandler
                0x00002da4                MCPWM_IRQHandler
                0x00002da4                ENET_IRQHandler
 .text          0x00002db4      0x2ac ..\..\lpc17xx_lib\source\lpc17xx_clkpwr.o
                0x00002dc0                CLKPWR_SetPCLKDiv
                0x00002e8c                CLKPWR_GetPCLKSEL
                0x00002ee0                CLKPWR_GetPCLK
                0x00002f54                CLKPWR_ConfigPPWR
                0x00002fcc                CLKPWR_Sleep
                0x00002fe8                CLKPWR_DeepSleep
                0x00003010                CLKPWR_PowerDown
                0x00003038                CLKPWR_DeepPowerDown
 .text          0x00003060      0x454 ..\..\src\cmsis_boot\system_LPC17xx.o
                0x00003060                SystemCoreClockUpdate
                0x00003274                SystemInit
 .text          0x000034b4        0xc ..\..\lpc17xx_lib\source\lpc17xx_libcfg_default.o
                0x000034b4                check_failed
 .text          0x000034c0      0x21c c:/program files (x86)/arm-none-eabi-gcc-4_6/bin/../lib/gcc/arm-none-eabi/4.6.2/armv7-m\libgcc.a(_arm_addsubsf3.o)
                0x000034c0                __aeabi_frsub
                0x000034c8                __subsf3
                0x000034c8                __aeabi_fsub
                0x000034cc                __aeabi_fadd
                0x000034cc                __addsf3
                0x0000362c                __aeabi_ui2f
                0x0000362c                __floatunsisf
                0x00003634                __aeabi_i2f
                0x00003634                __floatsisf
                0x00003650                __aeabi_ul2f
                0x00003650                __floatundisf
                0x00003660                __aeabi_l2f
                0x00003660                __floatdisf
 .text          0x000036dc      0x2a0 c:/program files (x86)/arm-none-eabi-gcc-4_6/bin/../lib/gcc/arm-none-eabi/4.6.2/armv7-m\libgcc.a(_arm_muldivsf3.o)
                0x000036dc                __mulsf3
                0x000036dc                __aeabi_fmul
                0x00003844                __aeabi_fdiv
                0x00003844                __divsf3
 .text          0x0000397c       0x84 c:/program files (x86)/arm-none-eabi-gcc-4_6/bin/../lib/gcc/arm-none-eabi/4.6.2/../../../../arm-none-eabi/lib/armv7-m\libg.a(lib_a-memcpy.o)
                0x0000397c                memcpy
 *(.glue_7t)
 .glue_7t       0x00000000        0x0 linker stubs
 *(.glue_7)
 .glue_7        0x00000000        0x0 linker stubs
 *(.rodata .rodata* .gnu.linkonce.r.*)
 .rodata        0x00003a00       0x28 ..\..\src\uKernel\main.o
                0x00003a00                j
 .rodata        0x00003a28       0x2c ..\..\lpc17xx_lib\source\lpc17xx_timer.o

.vfp11_veneer   0x00003a54        0x0
 .vfp11_veneer  0x00000000        0x0 linker stubs

.v4_bx          0x00003a54        0x0
 .v4_bx         0x00000000        0x0 linker stubs

.ARM.extab
 *(.ARM.extab* .gnu.linkonce.armextab.*)
                0x00003a54                __exidx_start = .

.ARM.exidx
 *(.ARM.exidx* .gnu.linkonce.armexidx.*)
                0x00003a54                __exidx_end = .
                0x00003a54                . = ALIGN (0x4)
                0x00003a54                _etext = .
                0x00003a54                _sidata = .

.data           0x10004000        0x8 load address 0x00003a54
                0x10004000                _sdata = .
 *(.data .data.*)
 .data          0x10004000        0x4 ..\..\src\uKernel\stats.o
                0x10004000                first
 .data          0x10004004        0x4 ..\..\src\cmsis_boot\system_LPC17xx.o
                0x10004004                SystemCoreClock
                0x10004008                . = ALIGN (0x4)
                0x10004008                _edata = .

.bss            0x2007c000     0x3aec
                0x2007c000                _sbss = .
 *(.bss .bss.*)
 .bss           0x2007c000        0x8 ..\..\src\uKernel\heap.o
 .bss           0x2007c008       0x10 ..\..\src\uKernel\kernel.o
                0x2007c008                criticalNesting
                0x2007c00c                interruptNesting
                0x2007c010                idleCounter
                0x2007c014                kernel_running
 .bss           0x2007c018       0x14 ..\..\src\uKernel\stats.o
 .bss           0x2007c02c        0x4 ..\..\src\uKernel\task.o
                0x2007c02c                number_of_tasks
 .bss           0x2007c030        0x4 ..\..\src\uKernel\time.o
 *(COMMON)
 COMMON         0x2007c034     0x2e74 ..\..\src\uKernel\main.o
                0x2007c034                Stack3
                0x2007c5ac                taskMatrixQueue
                0x2007c5b0                StackMatrix
                0x2007cb28                Stack2
                0x2007d0a0                Stack5
                0x2007d618                Stack1
                0x2007db90                StackADC
                0x2007e108                task6Q
                0x2007e10c                IdleStack
                0x2007e364                s
                0x2007e368                Stack6
                0x2007e8e0                CpuUtil
                0x2007e930                Stack4
 COMMON         0x2007eea8      0x3f0 ..\..\src\uKernel\heap.o
                0x2007eea8                heap1
                0x2007f294                heap
 COMMON         0x2007f298       0x20 ..\..\src\uKernel\port.o
                0x2007f298                r3
                0x2007f29c                r0
                0x2007f2a0                lr
                0x2007f2a4                r2
                0x2007f2a8                pc
                0x2007f2ac                psr
                0x2007f2b0                r12
                0x2007f2b4                r1
 COMMON         0x2007f2b8      0x320 ..\..\src\uKernel\stats.o
                0x2007f2b8                utilizations
                0x2007f448                StatTaskStack
 COMMON         0x2007f5d8      0x114 ..\..\src\uKernel\task.o
                0x2007f5d8                highestTCB
                0x2007f5dc                currentTCB
                0x2007f5e0                ReadyArray
                0x2007f660                allTasksLinked
                0x2007f668                TaskArray
                0x2007f6e8                ReadyTaskBitmap
 COMMON         0x2007f6ec      0x400 ..\..\src\cmsis_boot\startup\cr_startup_lpc17.o
                0x2007f6ec                pulStack
                0x2007faec                . = ALIGN (0x4)
                0x2007faec                _ebss = .

.co_stack       0x10004008        0x0
                0x10004008                . = ALIGN (0x8)
 *(.co_stack .co_stack.*)
                0x10004008                . = ALIGN (0x4)
                0x10004008                _end = .
START GROUP
LOAD c:/program files (x86)/arm-none-eabi-gcc-4_6/bin/../lib/gcc/arm-none-eabi/4.6.2/armv7-m\libgcc.a
LOAD c:/program files (x86)/arm-none-eabi-gcc-4_6/bin/../lib/gcc/arm-none-eabi/4.6.2/../../../../arm-none-eabi/lib/armv7-m\libg.a
LOAD c:/program files (x86)/arm-none-eabi-gcc-4_6/bin/../lib/gcc/arm-none-eabi/4.6.2/../../../../arm-none-eabi/lib/armv7-m\libc.a
END GROUP
OUTPUT(bin/uKernel.elf elf32-littlearm)

.debug_info     0x00000000     0x6249
 .debug_info    0x00000000      0xda0 ..\..\src\uKernel\main.o
 .debug_info    0x00000da0      0x41d ..\..\src\uKernel\heap.o
 .debug_info    0x000011bd       0x8f ..\..\src\uKernel\hooks.o
 .debug_info    0x0000124c      0x623 ..\..\src\uKernel\kernel.o
 .debug_info    0x0000186f      0x5ad ..\..\src\uKernel\message_queue.o
 .debug_info    0x00001e1c      0xab4 ..\..\src\uKernel\port.o
 .debug_info    0x000028d0      0x46b ..\..\src\uKernel\sem.o
 .debug_info    0x00002d3b      0x784 ..\..\src\uKernel\stats.o
 .debug_info    0x000034bf      0x62e ..\..\src\uKernel\task.o
 .debug_info    0x00003aed      0x5f4 ..\..\src\uKernel\time.o
 .debug_info    0x000040e1      0x56b ..\..\src\uKernel\wait_queue.o
 .debug_info    0x0000464c      0x870 ..\..\lpc17xx_lib\source\lpc17xx_timer.o
 .debug_info    0x00004ebc      0x24a ..\..\src\cmsis_boot\startup\cr_startup_lpc17.o
 .debug_info    0x00005106      0x659 ..\..\lpc17xx_lib\source\lpc17xx_clkpwr.o
 .debug_info    0x0000575f      0x4f2 ..\..\src\cmsis_boot\system_LPC17xx.o
 .debug_info    0x00005c51      0x541 ..\..\src\cmsis\core_cm3.o
 .debug_info    0x00006192       0xb7 ..\..\lpc17xx_lib\source\lpc17xx_libcfg_default.o

.debug_abbrev   0x00000000     0x1942
 .debug_abbrev  0x00000000      0x2e7 ..\..\src\uKernel\main.o
 .debug_abbrev  0x000002e7      0x199 ..\..\src\uKernel\heap.o
 .debug_abbrev  0x00000480       0x3f ..\..\src\uKernel\hooks.o
 .debug_abbrev  0x000004bf      0x1e1 ..\..\src\uKernel\kernel.o
 .debug_abbrev  0x000006a0      0x1a1 ..\..\src\uKernel\message_queue.o
 .debug_abbrev  0x00000841      0x256 ..\..\src\uKernel\port.o
 .debug_abbrev  0x00000a97      0x185 ..\..\src\uKernel\sem.o
 .debug_abbrev  0x00000c1c      0x1bd ..\..\src\uKernel\stats.o
 .debug_abbrev  0x00000dd9      0x1e6 ..\..\src\uKernel\task.o
 .debug_abbrev  0x00000fbf      0x213 ..\..\src\uKernel\time.o
 .debug_abbrev  0x000011d2      0x174 ..\..\src\uKernel\wait_queue.o
 .debug_abbrev  0x00001346      0x1b2 ..\..\lpc17xx_lib\source\lpc17xx_timer.o
 .debug_abbrev  0x000014f8       0xc8 ..\..\src\cmsis_boot\startup\cr_startup_lpc17.o
 .debug_abbrev  0x000015c0      0x170 ..\..\lpc17xx_lib\source\lpc17xx_clkpwr.o
 .debug_abbrev  0x00001730       0xd7 ..\..\src\cmsis_boot\system_LPC17xx.o
 .debug_abbrev  0x00001807       0xd5 ..\..\src\cmsis\core_cm3.o
 .debug_abbrev  0x000018dc       0x66 ..\..\lpc17xx_lib\source\lpc17xx_libcfg_default.o

.debug_loc      0x00000000     0x215e
 .debug_loc     0x00000000      0x31e ..\..\src\uKernel\main.o
 .debug_loc     0x0000031e      0x164 ..\..\src\uKernel\heap.o
 .debug_loc     0x00000482       0x58 ..\..\src\uKernel\hooks.o
 .debug_loc     0x000004da      0x190 ..\..\src\uKernel\kernel.o
 .debug_loc     0x0000066a      0x250 ..\..\src\uKernel\message_queue.o
 .debug_loc     0x000008ba      0x308 ..\..\src\uKernel\port.o
 .debug_loc     0x00000bc2      0x1a8 ..\..\src\uKernel\sem.o
 .debug_loc     0x00000d6a      0x10c ..\..\src\uKernel\stats.o
 .debug_loc     0x00000e76      0x2c0 ..\..\src\uKernel\task.o
 .debug_loc     0x00001136      0x1bc ..\..\src\uKernel\time.o
 .debug_loc     0x000012f2      0x2c0 ..\..\src\uKernel\wait_queue.o
 .debug_loc     0x000015b2      0x380 ..\..\lpc17xx_lib\source\lpc17xx_timer.o
 .debug_loc     0x00001932      0x1f0 ..\..\src\cmsis_boot\startup\cr_startup_lpc17.o
 .debug_loc     0x00001b22      0x1bc ..\..\lpc17xx_lib\source\lpc17xx_clkpwr.o
 .debug_loc     0x00001cde       0x58 ..\..\src\cmsis_boot\system_LPC17xx.o
 .debug_loc     0x00001d36      0x3f0 ..\..\src\cmsis\core_cm3.o
 .debug_loc     0x00002126       0x38 ..\..\lpc17xx_lib\source\lpc17xx_libcfg_default.o

.debug_aranges  0x00000000      0x220
 .debug_aranges
                0x00000000       0x20 ..\..\src\uKernel\main.o
 .debug_aranges
                0x00000020       0x20 ..\..\src\uKernel\heap.o
 .debug_aranges
                0x00000040       0x20 ..\..\src\uKernel\hooks.o
 .debug_aranges
                0x00000060       0x20 ..\..\src\uKernel\kernel.o
 .debug_aranges
                0x00000080       0x20 ..\..\src\uKernel\message_queue.o
 .debug_aranges
                0x000000a0       0x20 ..\..\src\uKernel\port.o
 .debug_aranges
                0x000000c0       0x20 ..\..\src\uKernel\sem.o
 .debug_aranges
                0x000000e0       0x20 ..\..\src\uKernel\stats.o
 .debug_aranges
                0x00000100       0x20 ..\..\src\uKernel\task.o
 .debug_aranges
                0x00000120       0x20 ..\..\src\uKernel\time.o
 .debug_aranges
                0x00000140       0x20 ..\..\src\uKernel\wait_queue.o
 .debug_aranges
                0x00000160       0x20 ..\..\lpc17xx_lib\source\lpc17xx_timer.o
 .debug_aranges
                0x00000180       0x20 ..\..\src\cmsis_boot\startup\cr_startup_lpc17.o
 .debug_aranges
                0x000001a0       0x20 ..\..\lpc17xx_lib\source\lpc17xx_clkpwr.o
 .debug_aranges
                0x000001c0       0x20 ..\..\src\cmsis_boot\system_LPC17xx.o
 .debug_aranges
                0x000001e0       0x20 ..\..\src\cmsis\core_cm3.o
 .debug_aranges
                0x00000200       0x20 ..\..\lpc17xx_lib\source\lpc17xx_libcfg_default.o

.debug_line     0x00000000     0x161c
 .debug_line    0x00000000      0x20c ..\..\src\uKernel\main.o
 .debug_line    0x0000020c      0x10e ..\..\src\uKernel\heap.o
 .debug_line    0x0000031a       0x4a ..\..\src\uKernel\hooks.o
 .debug_line    0x00000364      0x124 ..\..\src\uKernel\kernel.o
 .debug_line    0x00000488      0x157 ..\..\src\uKernel\message_queue.o
 .debug_line    0x000005df      0x170 ..\..\src\uKernel\port.o
 .debug_line    0x0000074f      0x118 ..\..\src\uKernel\sem.o
 .debug_line    0x00000867      0x144 ..\..\src\uKernel\stats.o
 .debug_line    0x000009ab      0x17c ..\..\src\uKernel\task.o
 .debug_line    0x00000b27      0x128 ..\..\src\uKernel\time.o
 .debug_line    0x00000c4f      0x146 ..\..\src\uKernel\wait_queue.o
 .debug_line    0x00000d95      0x391 ..\..\lpc17xx_lib\source\lpc17xx_timer.o
 .debug_line    0x00001126       0xd4 ..\..\src\cmsis_boot\startup\cr_startup_lpc17.o
 .debug_line    0x000011fa      0x161 ..\..\lpc17xx_lib\source\lpc17xx_clkpwr.o
 .debug_line    0x0000135b      0x141 ..\..\src\cmsis_boot\system_LPC17xx.o
 .debug_line    0x0000149c       0xf8 ..\..\src\cmsis\core_cm3.o
 .debug_line    0x00001594       0x88 ..\..\lpc17xx_lib\source\lpc17xx_libcfg_default.o

.debug_str      0x00000000     0x1760
 .debug_str     0x00000000      0x571 ..\..\src\uKernel\main.o
                                0x5d5 (size before relaxing)
 .debug_str     0x00000571       0x6f ..\..\src\uKernel\heap.o
                                0x2fa (size before relaxing)
 .debug_str     0x000005e0       0x39 ..\..\src\uKernel\hooks.o
                                0x11d (size before relaxing)
 .debug_str     0x00000619       0x75 ..\..\src\uKernel\kernel.o
                                0x36f (size before relaxing)
 .debug_str     0x0000068e       0xf7 ..\..\src\uKernel\message_queue.o
                                0x3cf (size before relaxing)
 .debug_str     0x00000785      0x557 ..\..\src\uKernel\port.o
                                0x6f7 (size before relaxing)
 .debug_str     0x00000cdc       0x44 ..\..\src\uKernel\sem.o
                                0x34f (size before relaxing)
 .debug_str     0x00000d20       0xa0 ..\..\src\uKernel\stats.o
                                0x489 (size before relaxing)
 .debug_str     0x00000dc0       0xbf ..\..\src\uKernel\task.o
                                0x3d0 (size before relaxing)
 .debug_str     0x00000e7f       0x4f ..\..\src\uKernel\time.o
                                0x36f (size before relaxing)
 .debug_str     0x00000ece       0x86 ..\..\src\uKernel\wait_queue.o
                                0x3b2 (size before relaxing)
 .debug_str     0x00000f54      0x315 ..\..\lpc17xx_lib\source\lpc17xx_timer.o
                                0x5b6 (size before relaxing)
 .debug_str     0x00001269      0x118 ..\..\src\cmsis_boot\startup\cr_startup_lpc17.o
                                0x209 (size before relaxing)
 .debug_str     0x00001381      0x1fb ..\..\lpc17xx_lib\source\lpc17xx_clkpwr.o
                                0x3af (size before relaxing)
 .debug_str     0x0000157c       0x47 ..\..\src\cmsis_boot\system_LPC17xx.o
                                0x2f1 (size before relaxing)
 .debug_str     0x000015c3      0x154 ..\..\src\cmsis\core_cm3.o
                                0x262 (size before relaxing)
 .debug_str     0x00001717       0x49 ..\..\lpc17xx_lib\source\lpc17xx_libcfg_default.o
                                0x13e (size before relaxing)

.comment        0x00000000       0x70
 .comment       0x00000000       0x70 ..\..\src\uKernel\main.o
                                 0x71 (size before relaxing)
 .comment       0x00000000       0x71 ..\..\src\uKernel\heap.o
 .comment       0x00000000       0x71 ..\..\src\uKernel\hooks.o
 .comment       0x00000000       0x71 ..\..\src\uKernel\kernel.o
 .comment       0x00000000       0x71 ..\..\src\uKernel\message_queue.o
 .comment       0x00000000       0x71 ..\..\src\uKernel\port.o
 .comment       0x00000000       0x71 ..\..\src\uKernel\sem.o
 .comment       0x00000000       0x71 ..\..\src\uKernel\stats.o
 .comment       0x00000000       0x71 ..\..\src\uKernel\task.o
 .comment       0x00000000       0x71 ..\..\src\uKernel\time.o
 .comment       0x00000000       0x71 ..\..\src\uKernel\wait_queue.o
 .comment       0x00000000       0x71 ..\..\lpc17xx_lib\source\lpc17xx_timer.o
 .comment       0x00000000       0x71 ..\..\src\cmsis_boot\startup\cr_startup_lpc17.o
 .comment       0x00000000       0x71 ..\..\lpc17xx_lib\source\lpc17xx_clkpwr.o
 .comment       0x00000000       0x71 ..\..\src\cmsis_boot\system_LPC17xx.o
 .comment       0x00000000       0x71 ..\..\src\cmsis\core_cm3.o
 .comment       0x00000000       0x71 ..\..\lpc17xx_lib\source\lpc17xx_libcfg_default.o

.ARM.attributes
                0x00000000       0x33
 .ARM.attributes
                0x00000000       0x33 ..\..\src\uKernel\main.o
 .ARM.attributes
                0x00000033       0x33 ..\..\src\uKernel\heap.o
 .ARM.attributes
                0x00000066       0x33 ..\..\src\uKernel\hooks.o
 .ARM.attributes
                0x00000099       0x33 ..\..\src\uKernel\kernel.o
 .ARM.attributes
                0x000000cc       0x33 ..\..\src\uKernel\message_queue.o
 .ARM.attributes
                0x000000ff       0x33 ..\..\src\uKernel\port.o
 .ARM.attributes
                0x00000132       0x33 ..\..\src\uKernel\sem.o
 .ARM.attributes
                0x00000165       0x33 ..\..\src\uKernel\stats.o
 .ARM.attributes
                0x00000198       0x33 ..\..\src\uKernel\task.o
 .ARM.attributes
                0x000001cb       0x33 ..\..\src\uKernel\time.o
 .ARM.attributes
                0x000001fe       0x33 ..\..\src\uKernel\wait_queue.o
 .ARM.attributes
                0x00000231       0x33 ..\..\lpc17xx_lib\source\lpc17xx_timer.o
 .ARM.attributes
                0x00000264       0x33 ..\..\src\cmsis_boot\startup\cr_startup_lpc17.o
 .ARM.attributes
                0x00000297       0x33 ..\..\lpc17xx_lib\source\lpc17xx_clkpwr.o
 .ARM.attributes
                0x000002ca       0x33 ..\..\src\cmsis_boot\system_LPC17xx.o
 .ARM.attributes
                0x000002fd       0x33 ..\..\src\cmsis\core_cm3.o
 .ARM.attributes
                0x00000330       0x33 ..\..\lpc17xx_lib\source\lpc17xx_libcfg_default.o
 .ARM.attributes
                0x00000363       0x1d c:/program files (x86)/arm-none-eabi-gcc-4_6/bin/../lib/gcc/arm-none-eabi/4.6.2/armv7-m\libgcc.a(_arm_addsubsf3.o)
 .ARM.attributes
                0x00000380       0x1d c:/program files (x86)/arm-none-eabi-gcc-4_6/bin/../lib/gcc/arm-none-eabi/4.6.2/armv7-m\libgcc.a(_arm_muldivsf3.o)
 .ARM.attributes
                0x0000039d       0x2d c:/program files (x86)/arm-none-eabi-gcc-4_6/bin/../lib/gcc/arm-none-eabi/4.6.2/../../../../arm-none-eabi/lib/armv7-m\libg.a(lib_a-memcpy.o)

.debug_frame    0x00000000     0x1464
 .debug_frame   0x00000000      0x1e0 ..\..\src\uKernel\main.o
 .debug_frame   0x000001e0       0xd8 ..\..\src\uKernel\heap.o
 .debug_frame   0x000002b8       0x40 ..\..\src\uKernel\hooks.o
 .debug_frame   0x000002f8      0x100 ..\..\src\uKernel\kernel.o
 .debug_frame   0x000003f8      0x160 ..\..\src\uKernel\message_queue.o
 .debug_frame   0x00000558      0x1c8 ..\..\src\uKernel\port.o
 .debug_frame   0x00000720      0x104 ..\..\src\uKernel\sem.o
 .debug_frame   0x00000824       0xa8 ..\..\src\uKernel\stats.o
 .debug_frame   0x000008cc      0x19c ..\..\src\uKernel\task.o
 .debug_frame   0x00000a68      0x114 ..\..\src\uKernel\time.o
 .debug_frame   0x00000b7c      0x19c ..\..\src\uKernel\wait_queue.o
 .debug_frame   0x00000d18      0x208 ..\..\lpc17xx_lib\source\lpc17xx_timer.o
 .debug_frame   0x00000f20      0x120 ..\..\src\cmsis_boot\startup\cr_startup_lpc17.o
 .debug_frame   0x00001040      0x10c ..\..\lpc17xx_lib\source\lpc17xx_clkpwr.o
 .debug_frame   0x0000114c       0x40 ..\..\src\cmsis_boot\system_LPC17xx.o
 .debug_frame   0x0000118c      0x280 ..\..\src\cmsis\core_cm3.o
 .debug_frame   0x0000140c       0x2c ..\..\lpc17xx_lib\source\lpc17xx_libcfg_default.o
 .debug_frame   0x00001438       0x2c c:/program files (x86)/arm-none-eabi-gcc-4_6/bin/../lib/gcc/arm-none-eabi/4.6.2/../../../../arm-none-eabi/lib/armv7-m\libg.a(lib_a-memcpy.o)
