Archive member included because of file (symbol)

c:/program files (x86)/arm-none-eabi-gcc-4_6/bin/../lib/gcc/arm-none-eabi/4.6.2/armv7-m\libgcc.a(_arm_addsubsf3.o)
                              C:\Users\hlias\AppData\Local\Temp\ccmJyVTl.o (__aeabi_ui2f)
c:/program files (x86)/arm-none-eabi-gcc-4_6/bin/../lib/gcc/arm-none-eabi/4.6.2/armv7-m\libgcc.a(_arm_muldivsf3.o)
                              C:\Users\hlias\AppData\Local\Temp\ccmJyVTl.o (__aeabi_fmul)
c:/program files (x86)/arm-none-eabi-gcc-4_6/bin/../lib/gcc/arm-none-eabi/4.6.2/armv7-m\libgcc.a(_aeabi_uldivmod.o)
                              C:\Users\hlias\AppData\Local\Temp\cczgd2sI.o (__aeabi_uldivmod)
c:/program files (x86)/arm-none-eabi-gcc-4_6/bin/../lib/gcc/arm-none-eabi/4.6.2/armv7-m\libgcc.a(bpabi.o)
                              c:/program files (x86)/arm-none-eabi-gcc-4_6/bin/../lib/gcc/arm-none-eabi/4.6.2/armv7-m\libgcc.a(_aeabi_uldivmod.o) (__gnu_uldivmod_helper)
c:/program files (x86)/arm-none-eabi-gcc-4_6/bin/../lib/gcc/arm-none-eabi/4.6.2/armv7-m\libgcc.a(unwind-arm.o)
                              c:/program files (x86)/arm-none-eabi-gcc-4_6/bin/../lib/gcc/arm-none-eabi/4.6.2/armv7-m\libgcc.a(bpabi.o) (__aeabi_unwind_cpp_pr0)
c:/program files (x86)/arm-none-eabi-gcc-4_6/bin/../lib/gcc/arm-none-eabi/4.6.2/armv7-m\libgcc.a(libunwind.o)
                              c:/program files (x86)/arm-none-eabi-gcc-4_6/bin/../lib/gcc/arm-none-eabi/4.6.2/armv7-m\libgcc.a(unwind-arm.o) (restore_core_regs)
c:/program files (x86)/arm-none-eabi-gcc-4_6/bin/../lib/gcc/arm-none-eabi/4.6.2/armv7-m\libgcc.a(pr-support.o)
                              c:/program files (x86)/arm-none-eabi-gcc-4_6/bin/../lib/gcc/arm-none-eabi/4.6.2/armv7-m\libgcc.a(unwind-arm.o) (__gnu_unwind_execute)
c:/program files (x86)/arm-none-eabi-gcc-4_6/bin/../lib/gcc/arm-none-eabi/4.6.2/armv7-m\libgcc.a(_dvmd_tls.o)
                              c:/program files (x86)/arm-none-eabi-gcc-4_6/bin/../lib/gcc/arm-none-eabi/4.6.2/armv7-m\libgcc.a(_aeabi_uldivmod.o) (__aeabi_ldiv0)
c:/program files (x86)/arm-none-eabi-gcc-4_6/bin/../lib/gcc/arm-none-eabi/4.6.2/armv7-m\libgcc.a(_divdi3.o)
                              c:/program files (x86)/arm-none-eabi-gcc-4_6/bin/../lib/gcc/arm-none-eabi/4.6.2/armv7-m\libgcc.a(bpabi.o) (__divdi3)
c:/program files (x86)/arm-none-eabi-gcc-4_6/bin/../lib/gcc/arm-none-eabi/4.6.2/armv7-m\libgcc.a(_udivdi3.o)
                              c:/program files (x86)/arm-none-eabi-gcc-4_6/bin/../lib/gcc/arm-none-eabi/4.6.2/armv7-m\libgcc.a(bpabi.o) (__udivdi3)
c:/program files (x86)/arm-none-eabi-gcc-4_6/bin/../lib/gcc/arm-none-eabi/4.6.2/../../../../arm-none-eabi/lib/armv7-m\libg.a(lib_a-memcpy.o)
                              C:\Users\hlias\AppData\Local\Temp\ccqXdpW7.o (memcpy)

Allocating common symbols
Common symbol       size              file

Stack3              0x578             C:\Users\hlias\AppData\Local\Temp\ccqXdpW7.o
r3                  0x4               C:\Users\hlias\AppData\Local\Temp\ccAIHEDS.o
highestTCB          0x4               C:\Users\hlias\AppData\Local\Temp\ccUFO42o.o
currentTCB          0x4               C:\Users\hlias\AppData\Local\Temp\ccUFO42o.o
ReadyArray          0x80              C:\Users\hlias\AppData\Local\Temp\ccUFO42o.o
taskMatrixQueue     0x4               C:\Users\hlias\AppData\Local\Temp\ccqXdpW7.o
r0                  0x4               C:\Users\hlias\AppData\Local\Temp\ccAIHEDS.o
utilizations        0x190             C:\Users\hlias\AppData\Local\Temp\ccmJyVTl.o
StackMatrix         0x578             C:\Users\hlias\AppData\Local\Temp\ccqXdpW7.o
Stack2              0x578             C:\Users\hlias\AppData\Local\Temp\ccqXdpW7.o
allTasksLinked      0x8               C:\Users\hlias\AppData\Local\Temp\ccUFO42o.o
PWMCfgDat           0x8               C:\Users\hlias\AppData\Local\Temp\ccqXdpW7.o
TaskArray           0x80              C:\Users\hlias\AppData\Local\Temp\ccUFO42o.o
Stack5              0x578             C:\Users\hlias\AppData\Local\Temp\ccqXdpW7.o
StatTaskStack       0x190             C:\Users\hlias\AppData\Local\Temp\ccmJyVTl.o
heap1               0x3eb             C:\Users\hlias\AppData\Local\Temp\ccFgCcI1.o
heap                0x4               C:\Users\hlias\AppData\Local\Temp\ccFgCcI1.o
pulStack            0x400             C:\Users\hlias\AppData\Local\Temp\ccfOUIpv.o
Stack1              0x578             C:\Users\hlias\AppData\Local\Temp\ccqXdpW7.o
PinCfg              0x5               C:\Users\hlias\AppData\Local\Temp\ccqXdpW7.o
StackADC            0x578             C:\Users\hlias\AppData\Local\Temp\ccqXdpW7.o
lr                  0x4               C:\Users\hlias\AppData\Local\Temp\ccAIHEDS.o
task6Q              0x4               C:\Users\hlias\AppData\Local\Temp\ccqXdpW7.o
IdleStack           0x258             C:\Users\hlias\AppData\Local\Temp\ccqXdpW7.o
s                   0x4               C:\Users\hlias\AppData\Local\Temp\ccqXdpW7.o
r2                  0x4               C:\Users\hlias\AppData\Local\Temp\ccAIHEDS.o
Stack6              0x578             C:\Users\hlias\AppData\Local\Temp\ccqXdpW7.o
CpuUtil             0x50              C:\Users\hlias\AppData\Local\Temp\ccqXdpW7.o
pc                  0x4               C:\Users\hlias\AppData\Local\Temp\ccAIHEDS.o
psr                 0x4               C:\Users\hlias\AppData\Local\Temp\ccAIHEDS.o
ReadyTaskBitmap     0x4               C:\Users\hlias\AppData\Local\Temp\ccUFO42o.o
PWMMatchCfgDat      0x4               C:\Users\hlias\AppData\Local\Temp\ccqXdpW7.o
r12                 0x4               C:\Users\hlias\AppData\Local\Temp\ccAIHEDS.o
Stack4              0x578             C:\Users\hlias\AppData\Local\Temp\ccqXdpW7.o
r1                  0x4               C:\Users\hlias\AppData\Local\Temp\ccAIHEDS.o

Discarded input sections

 .data          0x00000000        0x0 C:\Users\hlias\AppData\Local\Temp\ccqXdpW7.o
 .bss           0x00000000        0x0 C:\Users\hlias\AppData\Local\Temp\ccqXdpW7.o
 .data          0x00000000        0x0 C:\Users\hlias\AppData\Local\Temp\ccFgCcI1.o
 .data          0x00000000        0x0 C:\Users\hlias\AppData\Local\Temp\ccu8kER2.o
 .bss           0x00000000        0x0 C:\Users\hlias\AppData\Local\Temp\ccu8kER2.o
 .data          0x00000000        0x0 C:\Users\hlias\AppData\Local\Temp\ccSzFIV6.o
 .data          0x00000000        0x0 C:\Users\hlias\AppData\Local\Temp\cccvcrTo.o
 .bss           0x00000000        0x0 C:\Users\hlias\AppData\Local\Temp\cccvcrTo.o
 .data          0x00000000        0x0 C:\Users\hlias\AppData\Local\Temp\ccAIHEDS.o
 .bss           0x00000000        0x0 C:\Users\hlias\AppData\Local\Temp\ccAIHEDS.o
 .data          0x00000000        0x0 C:\Users\hlias\AppData\Local\Temp\ccO2Yb3x.o
 .bss           0x00000000        0x0 C:\Users\hlias\AppData\Local\Temp\ccO2Yb3x.o
 .data          0x00000000        0x0 C:\Users\hlias\AppData\Local\Temp\ccUFO42o.o
 .data          0x00000000        0x0 C:\Users\hlias\AppData\Local\Temp\ccdEBipv.o
 .data          0x00000000        0x0 C:\Users\hlias\AppData\Local\Temp\ccUsF28M.o
 .bss           0x00000000        0x0 C:\Users\hlias\AppData\Local\Temp\ccUsF28M.o
 .data          0x00000000        0x0 C:\Users\hlias\AppData\Local\Temp\ccdJblcf.o
 .bss           0x00000000        0x0 C:\Users\hlias\AppData\Local\Temp\ccdJblcf.o
 .data          0x00000000        0x0 C:\Users\hlias\AppData\Local\Temp\ccQvlepO.o
 .bss           0x00000000        0x0 C:\Users\hlias\AppData\Local\Temp\ccQvlepO.o
 .data          0x00000000        0x0 C:\Users\hlias\AppData\Local\Temp\ccjRnxww.o
 .bss           0x00000000        0x0 C:\Users\hlias\AppData\Local\Temp\ccjRnxww.o
 .data          0x00000000        0x0 C:\Users\hlias\AppData\Local\Temp\ccO5bZkr.o
 .bss           0x00000000        0x0 C:\Users\hlias\AppData\Local\Temp\ccO5bZkr.o
 .text          0x00000000      0x2a0 C:\Users\hlias\AppData\Local\Temp\ccfQRTSy.o
 .data          0x00000000        0x0 C:\Users\hlias\AppData\Local\Temp\ccfQRTSy.o
 .bss           0x00000000        0x0 C:\Users\hlias\AppData\Local\Temp\ccfQRTSy.o
 .text          0x00000000      0xb80 C:\Users\hlias\AppData\Local\Temp\cczgd2sI.o
 .data          0x00000000        0x0 C:\Users\hlias\AppData\Local\Temp\cczgd2sI.o
 .bss           0x00000000        0x0 C:\Users\hlias\AppData\Local\Temp\cczgd2sI.o
 .rodata        0x00000000       0x28 C:\Users\hlias\AppData\Local\Temp\cczgd2sI.o
 .data          0x00000000        0x0 C:\Users\hlias\AppData\Local\Temp\cct3a3l4.o
 .bss           0x00000000        0x0 C:\Users\hlias\AppData\Local\Temp\cct3a3l4.o
 .data          0x00000000        0x0 C:\Users\hlias\AppData\Local\Temp\cclJ5TTH.o
 .bss           0x00000000        0x0 C:\Users\hlias\AppData\Local\Temp\cclJ5TTH.o
 .text          0x00000000      0x28c C:\Users\hlias\AppData\Local\Temp\ccPqXNFu.o
 .data          0x00000000        0x0 C:\Users\hlias\AppData\Local\Temp\ccPqXNFu.o
 .bss           0x00000000        0x0 C:\Users\hlias\AppData\Local\Temp\ccPqXNFu.o
 .bss           0x00000000        0x0 C:\Users\hlias\AppData\Local\Temp\ccrYPDvp.o
 .data          0x00000000        0x0 C:\Users\hlias\AppData\Local\Temp\ccfOUIpv.o
 .bss           0x00000000        0x0 C:\Users\hlias\AppData\Local\Temp\ccfOUIpv.o
 .data          0x00000000        0x0 C:\Users\hlias\AppData\Local\Temp\ccMoubNy.o
 .data          0x00000000        0x0 c:/program files (x86)/arm-none-eabi-gcc-4_6/bin/../lib/gcc/arm-none-eabi/4.6.2/armv7-m\libgcc.a(_arm_addsubsf3.o)
 .bss           0x00000000        0x0 c:/program files (x86)/arm-none-eabi-gcc-4_6/bin/../lib/gcc/arm-none-eabi/4.6.2/armv7-m\libgcc.a(_arm_addsubsf3.o)
 .data          0x00000000        0x0 c:/program files (x86)/arm-none-eabi-gcc-4_6/bin/../lib/gcc/arm-none-eabi/4.6.2/armv7-m\libgcc.a(_arm_muldivsf3.o)
 .bss           0x00000000        0x0 c:/program files (x86)/arm-none-eabi-gcc-4_6/bin/../lib/gcc/arm-none-eabi/4.6.2/armv7-m\libgcc.a(_arm_muldivsf3.o)
 .data          0x00000000        0x0 c:/program files (x86)/arm-none-eabi-gcc-4_6/bin/../lib/gcc/arm-none-eabi/4.6.2/armv7-m\libgcc.a(_aeabi_uldivmod.o)
 .bss           0x00000000        0x0 c:/program files (x86)/arm-none-eabi-gcc-4_6/bin/../lib/gcc/arm-none-eabi/4.6.2/armv7-m\libgcc.a(_aeabi_uldivmod.o)
 .data          0x00000000        0x0 c:/program files (x86)/arm-none-eabi-gcc-4_6/bin/../lib/gcc/arm-none-eabi/4.6.2/armv7-m\libgcc.a(bpabi.o)
 .bss           0x00000000        0x0 c:/program files (x86)/arm-none-eabi-gcc-4_6/bin/../lib/gcc/arm-none-eabi/4.6.2/armv7-m\libgcc.a(bpabi.o)
 .ARM.extab     0x00000000        0x0 c:/program files (x86)/arm-none-eabi-gcc-4_6/bin/../lib/gcc/arm-none-eabi/4.6.2/armv7-m\libgcc.a(bpabi.o)
 .data          0x00000000        0x0 c:/program files (x86)/arm-none-eabi-gcc-4_6/bin/../lib/gcc/arm-none-eabi/4.6.2/armv7-m\libgcc.a(unwind-arm.o)
 .bss           0x00000000        0x0 c:/program files (x86)/arm-none-eabi-gcc-4_6/bin/../lib/gcc/arm-none-eabi/4.6.2/armv7-m\libgcc.a(unwind-arm.o)
 .data          0x00000000        0x0 c:/program files (x86)/arm-none-eabi-gcc-4_6/bin/../lib/gcc/arm-none-eabi/4.6.2/armv7-m\libgcc.a(libunwind.o)
 .bss           0x00000000        0x0 c:/program files (x86)/arm-none-eabi-gcc-4_6/bin/../lib/gcc/arm-none-eabi/4.6.2/armv7-m\libgcc.a(libunwind.o)
 .data          0x00000000        0x0 c:/program files (x86)/arm-none-eabi-gcc-4_6/bin/../lib/gcc/arm-none-eabi/4.6.2/armv7-m\libgcc.a(pr-support.o)
 .bss           0x00000000        0x0 c:/program files (x86)/arm-none-eabi-gcc-4_6/bin/../lib/gcc/arm-none-eabi/4.6.2/armv7-m\libgcc.a(pr-support.o)
 .data          0x00000000        0x0 c:/program files (x86)/arm-none-eabi-gcc-4_6/bin/../lib/gcc/arm-none-eabi/4.6.2/armv7-m\libgcc.a(_dvmd_tls.o)
 .bss           0x00000000        0x0 c:/program files (x86)/arm-none-eabi-gcc-4_6/bin/../lib/gcc/arm-none-eabi/4.6.2/armv7-m\libgcc.a(_dvmd_tls.o)
 .data          0x00000000        0x0 c:/program files (x86)/arm-none-eabi-gcc-4_6/bin/../lib/gcc/arm-none-eabi/4.6.2/armv7-m\libgcc.a(_divdi3.o)
 .bss           0x00000000        0x0 c:/program files (x86)/arm-none-eabi-gcc-4_6/bin/../lib/gcc/arm-none-eabi/4.6.2/armv7-m\libgcc.a(_divdi3.o)
 .ARM.extab     0x00000000        0x0 c:/program files (x86)/arm-none-eabi-gcc-4_6/bin/../lib/gcc/arm-none-eabi/4.6.2/armv7-m\libgcc.a(_divdi3.o)
 .data          0x00000000        0x0 c:/program files (x86)/arm-none-eabi-gcc-4_6/bin/../lib/gcc/arm-none-eabi/4.6.2/armv7-m\libgcc.a(_udivdi3.o)
 .bss           0x00000000        0x0 c:/program files (x86)/arm-none-eabi-gcc-4_6/bin/../lib/gcc/arm-none-eabi/4.6.2/armv7-m\libgcc.a(_udivdi3.o)
 .ARM.extab     0x00000000        0x0 c:/program files (x86)/arm-none-eabi-gcc-4_6/bin/../lib/gcc/arm-none-eabi/4.6.2/armv7-m\libgcc.a(_udivdi3.o)
 .data          0x00000000        0x0 c:/program files (x86)/arm-none-eabi-gcc-4_6/bin/../lib/gcc/arm-none-eabi/4.6.2/../../../../arm-none-eabi/lib/armv7-m\libg.a(lib_a-memcpy.o)
 .bss           0x00000000        0x0 c:/program files (x86)/arm-none-eabi-gcc-4_6/bin/../lib/gcc/arm-none-eabi/4.6.2/../../../../arm-none-eabi/lib/armv7-m\libg.a(lib_a-memcpy.o)

Memory Configuration

Name             Origin             Length             Attributes
rom              0x00000000         0x00008000         xr
ram              0x10004000         0x00008000         xrw
ram1             0x2007c000         0x00008000         xrw
*default*        0x00000000         0xffffffff

Linker script and memory map

LOAD C:\Users\hlias\AppData\Local\Temp\ccqXdpW7.o
LOAD C:\Users\hlias\AppData\Local\Temp\ccFgCcI1.o
LOAD C:\Users\hlias\AppData\Local\Temp\ccu8kER2.o
LOAD C:\Users\hlias\AppData\Local\Temp\ccSzFIV6.o
LOAD C:\Users\hlias\AppData\Local\Temp\cccvcrTo.o
LOAD C:\Users\hlias\AppData\Local\Temp\ccAIHEDS.o
LOAD C:\Users\hlias\AppData\Local\Temp\ccO2Yb3x.o
LOAD C:\Users\hlias\AppData\Local\Temp\ccmJyVTl.o
LOAD C:\Users\hlias\AppData\Local\Temp\ccUFO42o.o
LOAD C:\Users\hlias\AppData\Local\Temp\ccdEBipv.o
LOAD C:\Users\hlias\AppData\Local\Temp\ccUsF28M.o
LOAD C:\Users\hlias\AppData\Local\Temp\ccdJblcf.o
LOAD C:\Users\hlias\AppData\Local\Temp\ccQvlepO.o
LOAD C:\Users\hlias\AppData\Local\Temp\ccjRnxww.o
LOAD C:\Users\hlias\AppData\Local\Temp\ccO5bZkr.o
LOAD C:\Users\hlias\AppData\Local\Temp\ccfQRTSy.o
LOAD C:\Users\hlias\AppData\Local\Temp\cczgd2sI.o
LOAD C:\Users\hlias\AppData\Local\Temp\cct3a3l4.o
LOAD C:\Users\hlias\AppData\Local\Temp\cclJ5TTH.o
LOAD C:\Users\hlias\AppData\Local\Temp\ccPqXNFu.o
LOAD C:\Users\hlias\AppData\Local\Temp\ccrYPDvp.o
LOAD C:\Users\hlias\AppData\Local\Temp\ccfOUIpv.o
LOAD C:\Users\hlias\AppData\Local\Temp\ccMoubNy.o
                0x10008000                _eram = 0x10008000

.text           0x00000000     0x6220
 *(.isr_vector .isr_vector.*)
 .isr_vector    0x00000000       0xcc C:\Users\hlias\AppData\Local\Temp\ccfOUIpv.o
                0x00000000                g_pfnVectors
 *(.text .text.* .gnu.linkonce.t.*)
 .text          0x000000cc      0x6f0 C:\Users\hlias\AppData\Local\Temp\ccqXdpW7.o
                0x0000021c                main
                0x00000404                Task1
                0x00000474                ADC_IRQHandler
                0x000004b4                ADC_Task
                0x000004c8                TaskMatrix
                0x000005c8                Task2
                0x00000654                Task3
                0x00000710                Task4
                0x0000073c                Task5
                0x00000780                Task6
 .text          0x000007bc      0x1f8 C:\Users\hlias\AppData\Local\Temp\ccFgCcI1.o
                0x0000083c                heapInit
                0x00000898                portMalloc
                0x00000948                portFree
                0x0000095c                getHeapSize
 .text          0x000009b4       0x18 C:\Users\hlias\AppData\Local\Temp\ccu8kER2.o
                0x000009b4                idleTaskHook
                0x000009c0                contextSwitchHook
 .text          0x000009cc      0x23c C:\Users\hlias\AppData\Local\Temp\ccSzFIV6.o
                0x00000a4c                uKern_Init
                0x00000a64                StartOS
                0x00000ad0                schedule
                0x00000b6c                IdleTask
                0x00000b94                yield
 .text          0x00000c08      0x3c0 C:\Users\hlias\AppData\Local\Temp\cccvcrTo.o
                0x00000cac                queueCreate
                0x00000d5c                queueDelete
                0x00000d74                queueSendToTail
                0x00000e2c                queueReceive
                0x00000f08                queuePeek
                0x00000f54                queueGetNumberOfMessages
 .text          0x00000fc8      0x38c C:\Users\hlias\AppData\Local\Temp\ccAIHEDS.o
                0x00001044                StkInit
                0x000010c8                OSStartFirstTask
                0x000010e4                start_first_task
                0x00001108                OSTickStart
                0x00001120                OSTickStop
                0x00001144                OSTickConfig
                0x000011a0                prvGetRegistersFromStack
                0x0000121c                cpsie
                0x00001228                cpsid
                0x00001234                context_switch
                0x00001264                hw_init
                0x000012a0                HardFaultHndlr
                0x000012bc                port_reset_stat_timer_val
                0x000012cc                port_stat_timer_init
                0x0000133c                port_get_stat_timer_val
 .text          0x00001354      0x218 C:\Users\hlias\AppData\Local\Temp\ccO2Yb3x.o
                0x000013f8                sem_init
                0x00001434                sem_free
                0x0000144c                sem_get
                0x00001508                sem_release
 .text          0x0000156c      0x250 C:\Users\hlias\AppData\Local\Temp\ccmJyVTl.o
                0x0000158c                StatTask
                0x00001674                statsInit
                0x000016a8                getCpuUtilization
                0x000016c0                stats_hook
 .text          0x000017bc      0x4e0 C:\Users\hlias\AppData\Local\Temp\ccUFO42o.o
                0x0000188c                tasksInit
                0x00001920                task_create
                0x00001a70                getTCBbyPrio
                0x00001aa0                prioEnable
                0x00001b38                taskEnable
                0x00001bc8                prioDisable
                0x00001c6c                idleTaskInit
 .text          0x00001c9c      0x2a0 C:\Users\hlias\AppData\Local\Temp\ccdEBipv.o
                0x00001df8                OSTick
                0x00001e8c                TickTasks
                0x00001e98                timeDelay
                0x00001f24                getTickCount
 .text          0x00001f3c      0x2a8 C:\Users\hlias\AppData\Local\Temp\ccUsF28M.o
                0x000020cc                addTaskToWaitQueue
                0x00002134                removeTaskFromWaitQueue
                0x0000219c                removeHeadFromWaitQueue
 .text          0x000021e4      0x19c C:\Users\hlias\AppData\Local\Temp\ccdJblcf.o
                0x000021e4                dotmat_init
                0x00002224                plot_col
                0x00002264                unplot_col
                0x000022a0                plot_row
                0x000022dc                unplot_row
                0x0000231c                plot_val
                0x00002340                plot_xy
                0x00002360                unplot_xy
 .text          0x00002380      0x2ac C:\Users\hlias\AppData\Local\Temp\ccQvlepO.o
                0x0000238c                CLKPWR_SetPCLKDiv
                0x00002458                CLKPWR_GetPCLKSEL
                0x000024ac                CLKPWR_GetPCLK
                0x00002520                CLKPWR_ConfigPPWR
                0x00002598                CLKPWR_Sleep
                0x000025b4                CLKPWR_DeepSleep
                0x000025dc                CLKPWR_PowerDown
                0x00002604                CLKPWR_DeepPowerDown
 .text          0x0000262c        0xc C:\Users\hlias\AppData\Local\Temp\ccjRnxww.o
                0x0000262c                check_failed
 .text          0x00002638      0x8b0 C:\Users\hlias\AppData\Local\Temp\ccO5bZkr.o
                0x000027ac                GPIO_SetDir
                0x00002800                GPIO_SetValue
                0x0000282c                GPIO_ClearValue
                0x00002858                GPIO_ReadValue
                0x00002888                GPIO_IntCmd
                0x0000290c                GPIO_GetIntStatus
                0x000029cc                GPIO_ClearInt
                0x00002a0c                FIO_SetDir
                0x00002a34                FIO_SetValue
                0x00002a54                FIO_ClearValue
                0x00002a74                FIO_ReadValue
                0x00002a94                FIO_IntCmd
                0x00002abc                FIO_GetIntStatus
                0x00002ae8                FIO_ClearInt
                0x00002b08                FIO_SetMask
                0x00002b5c                FIO_HalfWordSetDir
                0x00002bf0                FIO_HalfWordSetMask
                0x00002c84                FIO_HalfWordSetValue
                0x00002cc4                FIO_HalfWordClearValue
                0x00002d04                FIO_HalfWordReadValue
                0x00002d48                FIO_ByteSetDir
                0x00002db8                FIO_ByteSetMask
                0x00002e30                FIO_ByteSetValue
                0x00002e6c                FIO_ByteClearValue
                0x00002ea8                FIO_ByteReadValue
 .text          0x00002ee8      0x578 C:\Users\hlias\AppData\Local\Temp\cct3a3l4.o
                0x00002ee8                ADC_Init
                0x00002f8c                ADC_DeInit
                0x00002fd4                ADC_GetData
                0x0000300c                ADC_StartCmd
                0x0000309c                ADC_BurstCmd
                0x000030ec                ADC_PowerdownCmd
                0x0000313c                ADC_EdgeStartConfig
                0x000031a8                ADC_IntConfig
                0x0000325c                ADC_ChannelCmd
                0x000032cc                ADC_ChannelGetData
                0x00003324                ADC_ChannelGetStatus
                0x000033b0                ADC_GlobalGetData
                0x000033e4                ADC_GlobalGetStatus
 .text          0x00003460      0xb8c C:\Users\hlias\AppData\Local\Temp\cclJ5TTH.o
                0x00003598                TIM_GetIntStatus
                0x0000364c                TIM_GetIntCaptureStatus
                0x00003704                TIM_ClearIntPending
                0x000037a4                TIM_ClearIntCapturePending
                0x00003848                TIM_ConfigStructInit
                0x00003888                TIM_Init
                0x00003a54                TIM_DeInit
                0x00003b18                TIM_Cmd
                0x00003b90                TIM_ResetCounter
                0x00003bfc                TIM_ConfigMatch
                0x00003dc8                TIM_UpdateMatchValue
                0x00003e60                TIM_ConfigCapture
                0x00003f68                TIM_GetCaptureValue
 .text          0x00003fec      0x454 C:\Users\hlias\AppData\Local\Temp\ccrYPDvp.o
                0x00003fec                SystemCoreClockUpdate
                0x00004200                SystemInit
 .text          0x00004440       0xb8 C:\Users\hlias\AppData\Local\Temp\ccfOUIpv.o
                0x00004440                ResetISR
                0x000044a0                NMI_Handler
                0x000044a8                HardFault_Handler
                0x000044b0                MemManage_Handler
                0x000044b8                BusFault_Handler
                0x000044c0                UsageFault_Handler
                0x000044c8                SVCall_Handler
                0x000044d0                DebugMon_Handler
                0x000044d8                PendSV_Handler
                0x000044e0                SysTick_Handler
                0x000044e8                PWM1_IRQHandler
                0x000044e8                I2C1_IRQHandler
                0x000044e8                EINT2_IRQHandler
                0x000044e8                UART1_IRQHandler
                0x000044e8                EINT3_IRQHandler
                0x000044e8                CANActivity_IRQHandler
                0x000044e8                TIMER3_IRQHandler
                0x000044e8                UART0_IRQHandler
                0x000044e8                I2C0_IRQHandler
                0x000044e8                IntDefaultHandler
                0x000044e8                PLL0_IRQHandler
                0x000044e8                RIT_IRQHandler
                0x000044e8                PLL1_IRQHandler
                0x000044e8                SSP0_IRQHandler
                0x000044e8                I2S_IRQHandler
                0x000044e8                I2C2_IRQHandler
                0x000044e8                RTC_IRQHandler
                0x000044e8                TIMER0_IRQHandler
                0x000044e8                SPI_IRQHandler
                0x000044e8                EINT1_IRQHandler
                0x000044e8                TIMER1_IRQHandler
                0x000044e8                UART2_IRQHandler
                0x000044e8                SSP1_IRQHandler
                0x000044e8                USB_IRQHandler
                0x000044e8                BOD_IRQHandler
                0x000044e8                USBActivity_IRQHandler
                0x000044e8                WDT_IRQHandler
                0x000044e8                QEI_IRQHandler
                0x000044e8                EINT0_IRQHandler
                0x000044e8                TIMER2_IRQHandler
                0x000044e8                DMA_IRQHandler
                0x000044e8                CAN_IRQHandler
                0x000044e8                UART3_IRQHandler
                0x000044e8                MCPWM_IRQHandler
                0x000044e8                ENET_IRQHandler
 .text          0x000044f8      0x128 C:\Users\hlias\AppData\Local\Temp\ccMoubNy.o
                0x000044f8                _sbrk
                0x00004554                link
                0x00004570                _close
                0x00004588                _fstat
                0x000045ac                _isatty
                0x000045c4                _lseek
                0x000045e0                _read
                0x000045fc                _write
                0x00004618                abort
 .text          0x00004620      0x21c c:/program files (x86)/arm-none-eabi-gcc-4_6/bin/../lib/gcc/arm-none-eabi/4.6.2/armv7-m\libgcc.a(_arm_addsubsf3.o)
                0x00004620                __aeabi_frsub
                0x00004628                __subsf3
                0x00004628                __aeabi_fsub
                0x0000462c                __aeabi_fadd
                0x0000462c                __addsf3
                0x0000478c                __aeabi_ui2f
                0x0000478c                __floatunsisf
                0x00004794                __aeabi_i2f
                0x00004794                __floatsisf
                0x000047b0                __aeabi_ul2f
                0x000047b0                __floatundisf
                0x000047c0                __aeabi_l2f
                0x000047c0                __floatdisf
 .text          0x0000483c      0x2a0 c:/program files (x86)/arm-none-eabi-gcc-4_6/bin/../lib/gcc/arm-none-eabi/4.6.2/armv7-m\libgcc.a(_arm_muldivsf3.o)
                0x0000483c                __mulsf3
                0x0000483c                __aeabi_fmul
                0x000049a4                __aeabi_fdiv
                0x000049a4                __divsf3
 .text          0x00004adc       0x2c c:/program files (x86)/arm-none-eabi-gcc-4_6/bin/../lib/gcc/arm-none-eabi/4.6.2/armv7-m\libgcc.a(_aeabi_uldivmod.o)
                0x00004adc                __aeabi_uldivmod
 .text          0x00004b08       0x5c c:/program files (x86)/arm-none-eabi-gcc-4_6/bin/../lib/gcc/arm-none-eabi/4.6.2/armv7-m\libgcc.a(bpabi.o)
                0x00004b08                __gnu_ldivmod_helper
                0x00004b38                __gnu_uldivmod_helper
 .text          0x00004b64      0xb4c c:/program files (x86)/arm-none-eabi-gcc-4_6/bin/../lib/gcc/arm-none-eabi/4.6.2/armv7-m\libgcc.a(unwind-arm.o)
                0x00004e0c                _Unwind_VRS_Get
                0x00004e4c                _Unwind_VRS_Set
                0x000051a4                __aeabi_unwind_cpp_pr2
                0x000051a8                __aeabi_unwind_cpp_pr1
                0x000051ac                __aeabi_unwind_cpp_pr0
                0x000051b0                _Unwind_VRS_Pop
                0x00005564                _Unwind_GetCFA
                0x00005568                __gnu_Unwind_RaiseException
                0x000055c8                __gnu_Unwind_ForcedUnwind
                0x000055dc                __gnu_Unwind_Resume
                0x00005618                __gnu_Unwind_Resume_or_Rethrow
                0x00005628                _Unwind_Complete
                0x0000562c                _Unwind_DeleteException
                0x0000563c                __gnu_Unwind_Backtrace
 .text          0x000056b0      0x1ac c:/program files (x86)/arm-none-eabi-gcc-4_6/bin/../lib/gcc/arm-none-eabi/4.6.2/armv7-m\libgcc.a(libunwind.o)
                0x000056b0                __restore_core_regs
                0x000056b0                restore_core_regs
                0x000056c8                __gnu_Unwind_Restore_VFP
                0x000056d0                __gnu_Unwind_Save_VFP
                0x000056d8                __gnu_Unwind_Restore_VFP_D
                0x000056e0                __gnu_Unwind_Save_VFP_D
                0x000056e8                __gnu_Unwind_Restore_VFP_D_16_to_31
                0x000056f0                __gnu_Unwind_Save_VFP_D_16_to_31
                0x000056f8                __gnu_Unwind_Restore_WMMXD
                0x0000573c                __gnu_Unwind_Save_WMMXD
                0x00005780                __gnu_Unwind_Restore_WMMXC
                0x00005794                __gnu_Unwind_Save_WMMXC
                0x000057a8                ___Unwind_RaiseException
                0x000057a8                _Unwind_RaiseException
                0x000057cc                _Unwind_Resume
                0x000057cc                ___Unwind_Resume
                0x000057f0                _Unwind_Resume_or_Rethrow
                0x000057f0                ___Unwind_Resume_or_Rethrow
                0x00005814                _Unwind_ForcedUnwind
                0x00005814                ___Unwind_ForcedUnwind
                0x00005838                ___Unwind_Backtrace
                0x00005838                _Unwind_Backtrace
 .text          0x0000585c      0x374 c:/program files (x86)/arm-none-eabi-gcc-4_6/bin/../lib/gcc/arm-none-eabi/4.6.2/armv7-m\libgcc.a(pr-support.o)
                0x000058b0                __gnu_unwind_execute
                0x00005b78                __gnu_unwind_frame
                0x00005ba0                _Unwind_GetRegionStart
                0x00005bac                _Unwind_GetLanguageSpecificData
                0x00005bc0                _Unwind_GetDataRelBase
                0x00005bc8                _Unwind_GetTextRelBase
 .text          0x00005bd0        0x4 c:/program files (x86)/arm-none-eabi-gcc-4_6/bin/../lib/gcc/arm-none-eabi/4.6.2/armv7-m\libgcc.a(_dvmd_tls.o)
                0x00005bd0                __aeabi_idiv0
                0x00005bd0                __aeabi_ldiv0
 .text          0x00005bd4      0x2c0 c:/program files (x86)/arm-none-eabi-gcc-4_6/bin/../lib/gcc/arm-none-eabi/4.6.2/armv7-m\libgcc.a(_divdi3.o)
                0x00005bd4                __divdi3
 .text          0x00005e94      0x28c c:/program files (x86)/arm-none-eabi-gcc-4_6/bin/../lib/gcc/arm-none-eabi/4.6.2/armv7-m\libgcc.a(_udivdi3.o)
                0x00005e94                __udivdi3
 .text          0x00006120       0x84 c:/program files (x86)/arm-none-eabi-gcc-4_6/bin/../lib/gcc/arm-none-eabi/4.6.2/../../../../arm-none-eabi/lib/armv7-m\libg.a(lib_a-memcpy.o)
                0x00006120                memcpy
 *(.glue_7t)
 .glue_7t       0x00000000        0x0 linker stubs
 *(.glue_7)
 .glue_7        0x00000000        0x0 linker stubs
 *(.rodata .rodata* .gnu.linkonce.r.*)
 .rodata        0x000061a4       0x28 C:\Users\hlias\AppData\Local\Temp\ccqXdpW7.o
                0x000061a4                j
 .rodata        0x000061cc       0x28 C:\Users\hlias\AppData\Local\Temp\cct3a3l4.o
 .rodata        0x000061f4       0x2c C:\Users\hlias\AppData\Local\Temp\cclJ5TTH.o

.vfp11_veneer   0x00006220        0x0
 .vfp11_veneer  0x00000000        0x0 linker stubs

.v4_bx          0x00006220        0x0
 .v4_bx         0x00000000        0x0 linker stubs

.ARM.extab      0x00006220       0x30
 *(.ARM.extab* .gnu.linkonce.armextab.*)
 .ARM.extab     0x00006220       0x18 c:/program files (x86)/arm-none-eabi-gcc-4_6/bin/../lib/gcc/arm-none-eabi/4.6.2/armv7-m\libgcc.a(unwind-arm.o)
 .ARM.extab     0x00006238       0x18 c:/program files (x86)/arm-none-eabi-gcc-4_6/bin/../lib/gcc/arm-none-eabi/4.6.2/armv7-m\libgcc.a(pr-support.o)
                0x00006250                __exidx_start = .

.ARM.exidx      0x00006250       0xe8
 *(.ARM.exidx* .gnu.linkonce.armexidx.*)
 .ARM.exidx     0x00006250       0x10 c:/program files (x86)/arm-none-eabi-gcc-4_6/bin/../lib/gcc/arm-none-eabi/4.6.2/armv7-m\libgcc.a(bpabi.o)
 .ARM.exidx     0x00006260       0x88 c:/program files (x86)/arm-none-eabi-gcc-4_6/bin/../lib/gcc/arm-none-eabi/4.6.2/armv7-m\libgcc.a(unwind-arm.o)
                                 0xc0 (size before relaxing)
 .ARM.exidx     0x000062e8       0x38 c:/program files (x86)/arm-none-eabi-gcc-4_6/bin/../lib/gcc/arm-none-eabi/4.6.2/armv7-m\libgcc.a(pr-support.o)
                                 0x48 (size before relaxing)
 .ARM.exidx     0x00006320        0x8 c:/program files (x86)/arm-none-eabi-gcc-4_6/bin/../lib/gcc/arm-none-eabi/4.6.2/armv7-m\libgcc.a(_divdi3.o)
 .ARM.exidx     0x00006328       0x10 c:/program files (x86)/arm-none-eabi-gcc-4_6/bin/../lib/gcc/arm-none-eabi/4.6.2/armv7-m\libgcc.a(_udivdi3.o)
                                  0x8 (size before relaxing)
                0x00006338                __exidx_end = .
                0x00006338                . = ALIGN (0x4)
                0x00006338                _etext = .
                0x00006338                _sidata = .

.data           0x10004000        0x8 load address 0x00006338
                0x10004000                _sdata = .
 *(.data .data.*)
 .data          0x10004000        0x4 C:\Users\hlias\AppData\Local\Temp\ccmJyVTl.o
                0x10004000                first
 .data          0x10004004        0x4 C:\Users\hlias\AppData\Local\Temp\ccrYPDvp.o
                0x10004004                SystemCoreClock
                0x10004008                . = ALIGN (0x4)
                0x10004008                _edata = .

.bss            0x2007c000     0x3b04
                0x2007c000                _sbss = .
 *(.bss .bss.*)
 .bss           0x2007c000        0x8 C:\Users\hlias\AppData\Local\Temp\ccFgCcI1.o
 .bss           0x2007c008       0x10 C:\Users\hlias\AppData\Local\Temp\ccSzFIV6.o
                0x2007c008                criticalNesting
                0x2007c00c                interruptNesting
                0x2007c010                idleCounter
                0x2007c014                kernel_running
 .bss           0x2007c018       0x14 C:\Users\hlias\AppData\Local\Temp\ccmJyVTl.o
 .bss           0x2007c02c        0x4 C:\Users\hlias\AppData\Local\Temp\ccUFO42o.o
                0x2007c02c                number_of_tasks
 .bss           0x2007c030        0x4 C:\Users\hlias\AppData\Local\Temp\ccdEBipv.o
 .bss           0x2007c034        0x4 C:\Users\hlias\AppData\Local\Temp\ccMoubNy.o
 *(COMMON)
 COMMON         0x2007c038     0x2e88 C:\Users\hlias\AppData\Local\Temp\ccqXdpW7.o
                0x2007c038                Stack3
                0x2007c5b0                taskMatrixQueue
                0x2007c5b4                StackMatrix
                0x2007cb2c                Stack2
                0x2007d0a4                PWMCfgDat
                0x2007d0ac                Stack5
                0x2007d624                Stack1
                0x2007db9c                PinCfg
                0x2007dba4                StackADC
                0x2007e11c                task6Q
                0x2007e120                IdleStack
                0x2007e378                s
                0x2007e37c                Stack6
                0x2007e8f4                CpuUtil
                0x2007e944                PWMMatchCfgDat
                0x2007e948                Stack4
 COMMON         0x2007eec0      0x3f0 C:\Users\hlias\AppData\Local\Temp\ccFgCcI1.o
                0x2007eec0                heap1
                0x2007f2ac                heap
 COMMON         0x2007f2b0       0x20 C:\Users\hlias\AppData\Local\Temp\ccAIHEDS.o
                0x2007f2b0                r3
                0x2007f2b4                r0
                0x2007f2b8                lr
                0x2007f2bc                r2
                0x2007f2c0                pc
                0x2007f2c4                psr
                0x2007f2c8                r12
                0x2007f2cc                r1
 COMMON         0x2007f2d0      0x320 C:\Users\hlias\AppData\Local\Temp\ccmJyVTl.o
                0x2007f2d0                utilizations
                0x2007f460                StatTaskStack
 COMMON         0x2007f5f0      0x114 C:\Users\hlias\AppData\Local\Temp\ccUFO42o.o
                0x2007f5f0                highestTCB
                0x2007f5f4                currentTCB
                0x2007f5f8                ReadyArray
                0x2007f678                allTasksLinked
                0x2007f680                TaskArray
                0x2007f700                ReadyTaskBitmap
 COMMON         0x2007f704      0x400 C:\Users\hlias\AppData\Local\Temp\ccfOUIpv.o
                0x2007f704                pulStack
                0x2007fb04                . = ALIGN (0x4)
                0x2007fb04                _ebss = .

.co_stack       0x10004008        0x0
                0x10004008                . = ALIGN (0x8)
 *(.co_stack .co_stack.*)
                0x10004008                . = ALIGN (0x4)
                0x10004008                _end = .
START GROUP
LOAD c:/program files (x86)/arm-none-eabi-gcc-4_6/bin/../lib/gcc/arm-none-eabi/4.6.2/armv7-m\libgcc.a
LOAD c:/program files (x86)/arm-none-eabi-gcc-4_6/bin/../lib/gcc/arm-none-eabi/4.6.2/../../../../arm-none-eabi/lib/armv7-m\libg.a
LOAD c:/program files (x86)/arm-none-eabi-gcc-4_6/bin/../lib/gcc/arm-none-eabi/4.6.2/../../../../arm-none-eabi/lib/armv7-m\libc.a
END GROUP
OUTPUT(bin/uKernel.elf elf32-littlearm)

.debug_info     0x00000000     0x8f1b
 .debug_info    0x00000000     0x100d C:\Users\hlias\AppData\Local\Temp\ccqXdpW7.o
 .debug_info    0x0000100d      0x41d C:\Users\hlias\AppData\Local\Temp\ccFgCcI1.o
 .debug_info    0x0000142a       0x81 C:\Users\hlias\AppData\Local\Temp\ccu8kER2.o
 .debug_info    0x000014ab      0x623 C:\Users\hlias\AppData\Local\Temp\ccSzFIV6.o
 .debug_info    0x00001ace      0x5ad C:\Users\hlias\AppData\Local\Temp\cccvcrTo.o
 .debug_info    0x0000207b      0xac9 C:\Users\hlias\AppData\Local\Temp\ccAIHEDS.o
 .debug_info    0x00002b44      0x46b C:\Users\hlias\AppData\Local\Temp\ccO2Yb3x.o
 .debug_info    0x00002faf      0x784 C:\Users\hlias\AppData\Local\Temp\ccmJyVTl.o
 .debug_info    0x00003733      0x62e C:\Users\hlias\AppData\Local\Temp\ccUFO42o.o
 .debug_info    0x00003d61      0x5f4 C:\Users\hlias\AppData\Local\Temp\ccdEBipv.o
 .debug_info    0x00004355      0x56b C:\Users\hlias\AppData\Local\Temp\ccUsF28M.o
 .debug_info    0x000048c0      0x4fe C:\Users\hlias\AppData\Local\Temp\ccdJblcf.o
 .debug_info    0x00004dbe      0x667 C:\Users\hlias\AppData\Local\Temp\ccQvlepO.o
 .debug_info    0x00005425       0xc5 C:\Users\hlias\AppData\Local\Temp\ccjRnxww.o
 .debug_info    0x000054ea      0xe1a C:\Users\hlias\AppData\Local\Temp\ccO5bZkr.o
 .debug_info    0x00006304      0x4a6 C:\Users\hlias\AppData\Local\Temp\ccfQRTSy.o
 .debug_info    0x000067aa      0x81a C:\Users\hlias\AppData\Local\Temp\cczgd2sI.o
 .debug_info    0x00006fc4      0x604 C:\Users\hlias\AppData\Local\Temp\cct3a3l4.o
 .debug_info    0x000075c8      0x87e C:\Users\hlias\AppData\Local\Temp\cclJ5TTH.o
 .debug_info    0x00007e46      0x548 C:\Users\hlias\AppData\Local\Temp\ccPqXNFu.o
 .debug_info    0x0000838e      0x4f9 C:\Users\hlias\AppData\Local\Temp\ccrYPDvp.o
 .debug_info    0x00008887      0x251 C:\Users\hlias\AppData\Local\Temp\ccfOUIpv.o
 .debug_info    0x00008ad8      0x443 C:\Users\hlias\AppData\Local\Temp\ccMoubNy.o

.debug_abbrev   0x00000000     0x20b8
 .debug_abbrev  0x00000000      0x2e3 C:\Users\hlias\AppData\Local\Temp\ccqXdpW7.o
 .debug_abbrev  0x000002e3      0x199 C:\Users\hlias\AppData\Local\Temp\ccFgCcI1.o
 .debug_abbrev  0x0000047c       0x3f C:\Users\hlias\AppData\Local\Temp\ccu8kER2.o
 .debug_abbrev  0x000004bb      0x1e1 C:\Users\hlias\AppData\Local\Temp\ccSzFIV6.o
 .debug_abbrev  0x0000069c      0x1a1 C:\Users\hlias\AppData\Local\Temp\cccvcrTo.o
 .debug_abbrev  0x0000083d      0x256 C:\Users\hlias\AppData\Local\Temp\ccAIHEDS.o
 .debug_abbrev  0x00000a93      0x185 C:\Users\hlias\AppData\Local\Temp\ccO2Yb3x.o
 .debug_abbrev  0x00000c18      0x1bd C:\Users\hlias\AppData\Local\Temp\ccmJyVTl.o
 .debug_abbrev  0x00000dd5      0x1e6 C:\Users\hlias\AppData\Local\Temp\ccUFO42o.o
 .debug_abbrev  0x00000fbb      0x213 C:\Users\hlias\AppData\Local\Temp\ccdEBipv.o
 .debug_abbrev  0x000011ce      0x174 C:\Users\hlias\AppData\Local\Temp\ccUsF28M.o
 .debug_abbrev  0x00001342       0xfc C:\Users\hlias\AppData\Local\Temp\ccdJblcf.o
 .debug_abbrev  0x0000143e      0x170 C:\Users\hlias\AppData\Local\Temp\ccQvlepO.o
 .debug_abbrev  0x000015ae       0x66 C:\Users\hlias\AppData\Local\Temp\ccjRnxww.o
 .debug_abbrev  0x00001614      0x1c7 C:\Users\hlias\AppData\Local\Temp\ccO5bZkr.o
 .debug_abbrev  0x000017db      0x11b C:\Users\hlias\AppData\Local\Temp\ccfQRTSy.o
 .debug_abbrev  0x000018f6      0x185 C:\Users\hlias\AppData\Local\Temp\cczgd2sI.o
 .debug_abbrev  0x00001a7b      0x13b C:\Users\hlias\AppData\Local\Temp\cct3a3l4.o
 .debug_abbrev  0x00001bb6      0x1b2 C:\Users\hlias\AppData\Local\Temp\cclJ5TTH.o
 .debug_abbrev  0x00001d68       0xd5 C:\Users\hlias\AppData\Local\Temp\ccPqXNFu.o
 .debug_abbrev  0x00001e3d       0xd7 C:\Users\hlias\AppData\Local\Temp\ccrYPDvp.o
 .debug_abbrev  0x00001f14       0xc8 C:\Users\hlias\AppData\Local\Temp\ccfOUIpv.o
 .debug_abbrev  0x00001fdc       0xdc C:\Users\hlias\AppData\Local\Temp\ccMoubNy.o

.debug_loc      0x00000000     0x3262
 .debug_loc     0x00000000      0x32a C:\Users\hlias\AppData\Local\Temp\ccqXdpW7.o
 .debug_loc     0x0000032a      0x164 C:\Users\hlias\AppData\Local\Temp\ccFgCcI1.o
 .debug_loc     0x0000048e       0x58 C:\Users\hlias\AppData\Local\Temp\ccu8kER2.o
 .debug_loc     0x000004e6      0x190 C:\Users\hlias\AppData\Local\Temp\ccSzFIV6.o
 .debug_loc     0x00000676      0x250 C:\Users\hlias\AppData\Local\Temp\cccvcrTo.o
 .debug_loc     0x000008c6      0x308 C:\Users\hlias\AppData\Local\Temp\ccAIHEDS.o
 .debug_loc     0x00000bce      0x1a8 C:\Users\hlias\AppData\Local\Temp\ccO2Yb3x.o
 .debug_loc     0x00000d76      0x10c C:\Users\hlias\AppData\Local\Temp\ccmJyVTl.o
 .debug_loc     0x00000e82      0x2c0 C:\Users\hlias\AppData\Local\Temp\ccUFO42o.o
 .debug_loc     0x00001142      0x1bc C:\Users\hlias\AppData\Local\Temp\ccdEBipv.o
 .debug_loc     0x000012fe      0x2c0 C:\Users\hlias\AppData\Local\Temp\ccUsF28M.o
 .debug_loc     0x000015be      0x1b4 C:\Users\hlias\AppData\Local\Temp\ccdJblcf.o
 .debug_loc     0x00001772      0x1bc C:\Users\hlias\AppData\Local\Temp\ccQvlepO.o
 .debug_loc     0x0000192e       0x38 C:\Users\hlias\AppData\Local\Temp\ccjRnxww.o
 .debug_loc     0x00001966      0x620 C:\Users\hlias\AppData\Local\Temp\ccO5bZkr.o
 .debug_loc     0x00001f86      0x150 C:\Users\hlias\AppData\Local\Temp\ccfQRTSy.o
 .debug_loc     0x000020d6      0x310 C:\Users\hlias\AppData\Local\Temp\cczgd2sI.o
 .debug_loc     0x000023e6      0x2d8 C:\Users\hlias\AppData\Local\Temp\cct3a3l4.o
 .debug_loc     0x000026be      0x380 C:\Users\hlias\AppData\Local\Temp\cclJ5TTH.o
 .debug_loc     0x00002a3e      0x3f0 C:\Users\hlias\AppData\Local\Temp\ccPqXNFu.o
 .debug_loc     0x00002e2e       0x58 C:\Users\hlias\AppData\Local\Temp\ccrYPDvp.o
 .debug_loc     0x00002e86      0x1f0 C:\Users\hlias\AppData\Local\Temp\ccfOUIpv.o
 .debug_loc     0x00003076      0x1ec C:\Users\hlias\AppData\Local\Temp\ccMoubNy.o

.debug_aranges  0x00000000      0x2e0
 .debug_aranges
                0x00000000       0x20 C:\Users\hlias\AppData\Local\Temp\ccqXdpW7.o
 .debug_aranges
                0x00000020       0x20 C:\Users\hlias\AppData\Local\Temp\ccFgCcI1.o
 .debug_aranges
                0x00000040       0x20 C:\Users\hlias\AppData\Local\Temp\ccu8kER2.o
 .debug_aranges
                0x00000060       0x20 C:\Users\hlias\AppData\Local\Temp\ccSzFIV6.o
 .debug_aranges
                0x00000080       0x20 C:\Users\hlias\AppData\Local\Temp\cccvcrTo.o
 .debug_aranges
                0x000000a0       0x20 C:\Users\hlias\AppData\Local\Temp\ccAIHEDS.o
 .debug_aranges
                0x000000c0       0x20 C:\Users\hlias\AppData\Local\Temp\ccO2Yb3x.o
 .debug_aranges
                0x000000e0       0x20 C:\Users\hlias\AppData\Local\Temp\ccmJyVTl.o
 .debug_aranges
                0x00000100       0x20 C:\Users\hlias\AppData\Local\Temp\ccUFO42o.o
 .debug_aranges
                0x00000120       0x20 C:\Users\hlias\AppData\Local\Temp\ccdEBipv.o
 .debug_aranges
                0x00000140       0x20 C:\Users\hlias\AppData\Local\Temp\ccUsF28M.o
 .debug_aranges
                0x00000160       0x20 C:\Users\hlias\AppData\Local\Temp\ccdJblcf.o
 .debug_aranges
                0x00000180       0x20 C:\Users\hlias\AppData\Local\Temp\ccQvlepO.o
 .debug_aranges
                0x000001a0       0x20 C:\Users\hlias\AppData\Local\Temp\ccjRnxww.o
 .debug_aranges
                0x000001c0       0x20 C:\Users\hlias\AppData\Local\Temp\ccO5bZkr.o
 .debug_aranges
                0x000001e0       0x20 C:\Users\hlias\AppData\Local\Temp\ccfQRTSy.o
 .debug_aranges
                0x00000200       0x20 C:\Users\hlias\AppData\Local\Temp\cczgd2sI.o
 .debug_aranges
                0x00000220       0x20 C:\Users\hlias\AppData\Local\Temp\cct3a3l4.o
 .debug_aranges
                0x00000240       0x20 C:\Users\hlias\AppData\Local\Temp\cclJ5TTH.o
 .debug_aranges
                0x00000260       0x20 C:\Users\hlias\AppData\Local\Temp\ccPqXNFu.o
 .debug_aranges
                0x00000280       0x20 C:\Users\hlias\AppData\Local\Temp\ccrYPDvp.o
 .debug_aranges
                0x000002a0       0x20 C:\Users\hlias\AppData\Local\Temp\ccfOUIpv.o
 .debug_aranges
                0x000002c0       0x20 C:\Users\hlias\AppData\Local\Temp\ccMoubNy.o

.debug_line     0x00000000     0x27b7
 .debug_line    0x00000000      0x2de C:\Users\hlias\AppData\Local\Temp\ccqXdpW7.o
 .debug_line    0x000002de      0x10e C:\Users\hlias\AppData\Local\Temp\ccFgCcI1.o
 .debug_line    0x000003ec       0x4a C:\Users\hlias\AppData\Local\Temp\ccu8kER2.o
 .debug_line    0x00000436      0x1a2 C:\Users\hlias\AppData\Local\Temp\ccSzFIV6.o
 .debug_line    0x000005d8      0x157 C:\Users\hlias\AppData\Local\Temp\cccvcrTo.o
 .debug_line    0x0000072f      0x1ee C:\Users\hlias\AppData\Local\Temp\ccAIHEDS.o
 .debug_line    0x0000091d      0x118 C:\Users\hlias\AppData\Local\Temp\ccO2Yb3x.o
 .debug_line    0x00000a35      0x1c2 C:\Users\hlias\AppData\Local\Temp\ccmJyVTl.o
 .debug_line    0x00000bf7      0x17c C:\Users\hlias\AppData\Local\Temp\ccUFO42o.o
 .debug_line    0x00000d73      0x1a6 C:\Users\hlias\AppData\Local\Temp\ccdEBipv.o
 .debug_line    0x00000f19      0x146 C:\Users\hlias\AppData\Local\Temp\ccUsF28M.o
 .debug_line    0x0000105f      0x12f C:\Users\hlias\AppData\Local\Temp\ccdJblcf.o
 .debug_line    0x0000118e      0x1bd C:\Users\hlias\AppData\Local\Temp\ccQvlepO.o
 .debug_line    0x0000134b       0xe4 C:\Users\hlias\AppData\Local\Temp\ccjRnxww.o
 .debug_line    0x0000142f      0x28f C:\Users\hlias\AppData\Local\Temp\ccO5bZkr.o
 .debug_line    0x000016be      0x190 C:\Users\hlias\AppData\Local\Temp\ccfQRTSy.o
 .debug_line    0x0000184e      0x417 C:\Users\hlias\AppData\Local\Temp\cczgd2sI.o
 .debug_line    0x00001c65      0x299 C:\Users\hlias\AppData\Local\Temp\cct3a3l4.o
 .debug_line    0x00001efe      0x3ee C:\Users\hlias\AppData\Local\Temp\cclJ5TTH.o
 .debug_line    0x000022ec      0x154 C:\Users\hlias\AppData\Local\Temp\ccPqXNFu.o
 .debug_line    0x00002440      0x19d C:\Users\hlias\AppData\Local\Temp\ccrYPDvp.o
 .debug_line    0x000025dd       0xd4 C:\Users\hlias\AppData\Local\Temp\ccfOUIpv.o
 .debug_line    0x000026b1      0x106 C:\Users\hlias\AppData\Local\Temp\ccMoubNy.o

.debug_str      0x00000000     0x2538
 .debug_str     0x00000000      0x73e C:\Users\hlias\AppData\Local\Temp\ccqXdpW7.o
                                0x7a2 (size before relaxing)
 .debug_str     0x0000073e       0x6a C:\Users\hlias\AppData\Local\Temp\ccFgCcI1.o
                                0x2fa (size before relaxing)
 .debug_str     0x000007a8       0x39 C:\Users\hlias\AppData\Local\Temp\ccu8kER2.o
                                0x102 (size before relaxing)
 .debug_str     0x000007e1       0x75 C:\Users\hlias\AppData\Local\Temp\ccSzFIV6.o
                                0x36f (size before relaxing)
 .debug_str     0x00000856       0xf7 C:\Users\hlias\AppData\Local\Temp\cccvcrTo.o
                                0x3cf (size before relaxing)
 .debug_str     0x0000094d      0x500 C:\Users\hlias\AppData\Local\Temp\ccAIHEDS.o
                                0x728 (size before relaxing)
 .debug_str     0x00000e4d       0x44 C:\Users\hlias\AppData\Local\Temp\ccO2Yb3x.o
                                0x34f (size before relaxing)
 .debug_str     0x00000e91       0xa0 C:\Users\hlias\AppData\Local\Temp\ccmJyVTl.o
                                0x489 (size before relaxing)
 .debug_str     0x00000f31       0xbf C:\Users\hlias\AppData\Local\Temp\ccUFO42o.o
                                0x3d0 (size before relaxing)
 .debug_str     0x00000ff0       0x4f C:\Users\hlias\AppData\Local\Temp\ccdEBipv.o
                                0x36f (size before relaxing)
 .debug_str     0x0000103f       0x86 C:\Users\hlias\AppData\Local\Temp\ccUsF28M.o
                                0x3b2 (size before relaxing)
 .debug_str     0x000010c5       0x49 C:\Users\hlias\AppData\Local\Temp\ccdJblcf.o
                                0x2da (size before relaxing)
 .debug_str     0x0000110e      0x214 C:\Users\hlias\AppData\Local\Temp\ccQvlepO.o
                                0x3da (size before relaxing)
 .debug_str     0x00001322       0x49 C:\Users\hlias\AppData\Local\Temp\ccjRnxww.o
                                0x169 (size before relaxing)
 .debug_str     0x0000136b      0x30b C:\Users\hlias\AppData\Local\Temp\ccO5bZkr.o
                                0x59f (size before relaxing)
 .debug_str     0x00001676      0x214 C:\Users\hlias\AppData\Local\Temp\ccfQRTSy.o
                                0x3b3 (size before relaxing)
 .debug_str     0x0000188a      0x3ee C:\Users\hlias\AppData\Local\Temp\cczgd2sI.o
                                0x5ec (size before relaxing)
 .debug_str     0x00001c78      0x285 C:\Users\hlias\AppData\Local\Temp\cct3a3l4.o
                                0x4ed (size before relaxing)
 .debug_str     0x00001efd      0x253 C:\Users\hlias\AppData\Local\Temp\cclJ5TTH.o
                                0x5e1 (size before relaxing)
 .debug_str     0x00002150      0x14e C:\Users\hlias\AppData\Local\Temp\ccPqXNFu.o
                                0x288 (size before relaxing)
 .debug_str     0x0000229e       0x47 C:\Users\hlias\AppData\Local\Temp\ccrYPDvp.o
                                0x317 (size before relaxing)
 .debug_str     0x000022e5      0x118 C:\Users\hlias\AppData\Local\Temp\ccfOUIpv.o
                                0x22f (size before relaxing)
 .debug_str     0x000023fd      0x13b C:\Users\hlias\AppData\Local\Temp\ccMoubNy.o
                                0x281 (size before relaxing)

.comment        0x00000000       0x70
 .comment       0x00000000       0x70 C:\Users\hlias\AppData\Local\Temp\ccqXdpW7.o
                                 0x71 (size before relaxing)
 .comment       0x00000000       0x71 C:\Users\hlias\AppData\Local\Temp\ccFgCcI1.o
 .comment       0x00000000       0x71 C:\Users\hlias\AppData\Local\Temp\ccu8kER2.o
 .comment       0x00000000       0x71 C:\Users\hlias\AppData\Local\Temp\ccSzFIV6.o
 .comment       0x00000000       0x71 C:\Users\hlias\AppData\Local\Temp\cccvcrTo.o
 .comment       0x00000000       0x71 C:\Users\hlias\AppData\Local\Temp\ccAIHEDS.o
 .comment       0x00000000       0x71 C:\Users\hlias\AppData\Local\Temp\ccO2Yb3x.o
 .comment       0x00000000       0x71 C:\Users\hlias\AppData\Local\Temp\ccmJyVTl.o
 .comment       0x00000000       0x71 C:\Users\hlias\AppData\Local\Temp\ccUFO42o.o
 .comment       0x00000000       0x71 C:\Users\hlias\AppData\Local\Temp\ccdEBipv.o
 .comment       0x00000000       0x71 C:\Users\hlias\AppData\Local\Temp\ccUsF28M.o
 .comment       0x00000000       0x71 C:\Users\hlias\AppData\Local\Temp\ccdJblcf.o
 .comment       0x00000000       0x71 C:\Users\hlias\AppData\Local\Temp\ccQvlepO.o
 .comment       0x00000000       0x71 C:\Users\hlias\AppData\Local\Temp\ccjRnxww.o
 .comment       0x00000000       0x71 C:\Users\hlias\AppData\Local\Temp\ccO5bZkr.o
 .comment       0x00000000       0x71 C:\Users\hlias\AppData\Local\Temp\ccfQRTSy.o
 .comment       0x00000000       0x71 C:\Users\hlias\AppData\Local\Temp\cczgd2sI.o
 .comment       0x00000000       0x71 C:\Users\hlias\AppData\Local\Temp\cct3a3l4.o
 .comment       0x00000000       0x71 C:\Users\hlias\AppData\Local\Temp\cclJ5TTH.o
 .comment       0x00000000       0x71 C:\Users\hlias\AppData\Local\Temp\ccPqXNFu.o
 .comment       0x00000000       0x71 C:\Users\hlias\AppData\Local\Temp\ccrYPDvp.o
 .comment       0x00000000       0x71 C:\Users\hlias\AppData\Local\Temp\ccfOUIpv.o
 .comment       0x00000000       0x71 C:\Users\hlias\AppData\Local\Temp\ccMoubNy.o

.ARM.attributes
                0x00000000       0x33
 .ARM.attributes
                0x00000000       0x33 C:\Users\hlias\AppData\Local\Temp\ccqXdpW7.o
 .ARM.attributes
                0x00000033       0x33 C:\Users\hlias\AppData\Local\Temp\ccFgCcI1.o
 .ARM.attributes
                0x00000066       0x33 C:\Users\hlias\AppData\Local\Temp\ccu8kER2.o
 .ARM.attributes
                0x00000099       0x33 C:\Users\hlias\AppData\Local\Temp\ccSzFIV6.o
 .ARM.attributes
                0x000000cc       0x33 C:\Users\hlias\AppData\Local\Temp\cccvcrTo.o
 .ARM.attributes
                0x000000ff       0x33 C:\Users\hlias\AppData\Local\Temp\ccAIHEDS.o
 .ARM.attributes
                0x00000132       0x33 C:\Users\hlias\AppData\Local\Temp\ccO2Yb3x.o
 .ARM.attributes
                0x00000165       0x33 C:\Users\hlias\AppData\Local\Temp\ccmJyVTl.o
 .ARM.attributes
                0x00000198       0x33 C:\Users\hlias\AppData\Local\Temp\ccUFO42o.o
 .ARM.attributes
                0x000001cb       0x33 C:\Users\hlias\AppData\Local\Temp\ccdEBipv.o
 .ARM.attributes
                0x000001fe       0x33 C:\Users\hlias\AppData\Local\Temp\ccUsF28M.o
 .ARM.attributes
                0x00000231       0x33 C:\Users\hlias\AppData\Local\Temp\ccdJblcf.o
 .ARM.attributes
                0x00000264       0x33 C:\Users\hlias\AppData\Local\Temp\ccQvlepO.o
 .ARM.attributes
                0x00000297       0x33 C:\Users\hlias\AppData\Local\Temp\ccjRnxww.o
 .ARM.attributes
                0x000002ca       0x33 C:\Users\hlias\AppData\Local\Temp\ccO5bZkr.o
 .ARM.attributes
                0x000002fd       0x33 C:\Users\hlias\AppData\Local\Temp\ccfQRTSy.o
 .ARM.attributes
                0x00000330       0x33 C:\Users\hlias\AppData\Local\Temp\cczgd2sI.o
 .ARM.attributes
                0x00000363       0x33 C:\Users\hlias\AppData\Local\Temp\cct3a3l4.o
 .ARM.attributes
                0x00000396       0x33 C:\Users\hlias\AppData\Local\Temp\cclJ5TTH.o
 .ARM.attributes
                0x000003c9       0x33 C:\Users\hlias\AppData\Local\Temp\ccPqXNFu.o
 .ARM.attributes
                0x000003fc       0x33 C:\Users\hlias\AppData\Local\Temp\ccrYPDvp.o
 .ARM.attributes
                0x0000042f       0x33 C:\Users\hlias\AppData\Local\Temp\ccfOUIpv.o
 .ARM.attributes
                0x00000462       0x33 C:\Users\hlias\AppData\Local\Temp\ccMoubNy.o
 .ARM.attributes
                0x00000495       0x1d c:/program files (x86)/arm-none-eabi-gcc-4_6/bin/../lib/gcc/arm-none-eabi/4.6.2/armv7-m\libgcc.a(_arm_addsubsf3.o)
 .ARM.attributes
                0x000004b2       0x1d c:/program files (x86)/arm-none-eabi-gcc-4_6/bin/../lib/gcc/arm-none-eabi/4.6.2/armv7-m\libgcc.a(_arm_muldivsf3.o)
 .ARM.attributes
                0x000004cf       0x1d c:/program files (x86)/arm-none-eabi-gcc-4_6/bin/../lib/gcc/arm-none-eabi/4.6.2/armv7-m\libgcc.a(_aeabi_uldivmod.o)
 .ARM.attributes
                0x000004ec       0x2d c:/program files (x86)/arm-none-eabi-gcc-4_6/bin/../lib/gcc/arm-none-eabi/4.6.2/armv7-m\libgcc.a(bpabi.o)
 .ARM.attributes
                0x00000519       0x2d c:/program files (x86)/arm-none-eabi-gcc-4_6/bin/../lib/gcc/arm-none-eabi/4.6.2/armv7-m\libgcc.a(unwind-arm.o)
 .ARM.attributes
                0x00000546       0x1d c:/program files (x86)/arm-none-eabi-gcc-4_6/bin/../lib/gcc/arm-none-eabi/4.6.2/armv7-m\libgcc.a(libunwind.o)
 .ARM.attributes
                0x00000563       0x2d c:/program files (x86)/arm-none-eabi-gcc-4_6/bin/../lib/gcc/arm-none-eabi/4.6.2/armv7-m\libgcc.a(pr-support.o)
 .ARM.attributes
                0x00000590       0x1d c:/program files (x86)/arm-none-eabi-gcc-4_6/bin/../lib/gcc/arm-none-eabi/4.6.2/armv7-m\libgcc.a(_dvmd_tls.o)
 .ARM.attributes
                0x000005ad       0x2d c:/program files (x86)/arm-none-eabi-gcc-4_6/bin/../lib/gcc/arm-none-eabi/4.6.2/armv7-m\libgcc.a(_divdi3.o)
 .ARM.attributes
                0x000005da       0x2d c:/program files (x86)/arm-none-eabi-gcc-4_6/bin/../lib/gcc/arm-none-eabi/4.6.2/armv7-m\libgcc.a(_udivdi3.o)
 .ARM.attributes
                0x00000607       0x2d c:/program files (x86)/arm-none-eabi-gcc-4_6/bin/../lib/gcc/arm-none-eabi/4.6.2/../../../../arm-none-eabi/lib/armv7-m\libg.a(lib_a-memcpy.o)

.debug_frame    0x00000000     0x2224
 .debug_frame   0x00000000      0x1e4 C:\Users\hlias\AppData\Local\Temp\ccqXdpW7.o
 .debug_frame   0x000001e4       0xd8 C:\Users\hlias\AppData\Local\Temp\ccFgCcI1.o
 .debug_frame   0x000002bc       0x40 C:\Users\hlias\AppData\Local\Temp\ccu8kER2.o
 .debug_frame   0x000002fc      0x100 C:\Users\hlias\AppData\Local\Temp\ccSzFIV6.o
 .debug_frame   0x000003fc      0x160 C:\Users\hlias\AppData\Local\Temp\cccvcrTo.o
 .debug_frame   0x0000055c      0x1c8 C:\Users\hlias\AppData\Local\Temp\ccAIHEDS.o
 .debug_frame   0x00000724      0x104 C:\Users\hlias\AppData\Local\Temp\ccO2Yb3x.o
 .debug_frame   0x00000828       0xa8 C:\Users\hlias\AppData\Local\Temp\ccmJyVTl.o
 .debug_frame   0x000008d0      0x19c C:\Users\hlias\AppData\Local\Temp\ccUFO42o.o
 .debug_frame   0x00000a6c      0x114 C:\Users\hlias\AppData\Local\Temp\ccdEBipv.o
 .debug_frame   0x00000b80      0x19c C:\Users\hlias\AppData\Local\Temp\ccUsF28M.o
 .debug_frame   0x00000d1c       0xf8 C:\Users\hlias\AppData\Local\Temp\ccdJblcf.o
 .debug_frame   0x00000e14      0x10c C:\Users\hlias\AppData\Local\Temp\ccQvlepO.o
 .debug_frame   0x00000f20       0x2c C:\Users\hlias\AppData\Local\Temp\ccjRnxww.o
 .debug_frame   0x00000f4c      0x378 C:\Users\hlias\AppData\Local\Temp\ccO5bZkr.o
 .debug_frame   0x000012c4       0xbc C:\Users\hlias\AppData\Local\Temp\ccfQRTSy.o
 .debug_frame   0x00001380      0x1d0 C:\Users\hlias\AppData\Local\Temp\cczgd2sI.o
 .debug_frame   0x00001550      0x1ac C:\Users\hlias\AppData\Local\Temp\cct3a3l4.o
 .debug_frame   0x000016fc      0x208 C:\Users\hlias\AppData\Local\Temp\cclJ5TTH.o
 .debug_frame   0x00001904      0x280 C:\Users\hlias\AppData\Local\Temp\ccPqXNFu.o
 .debug_frame   0x00001b84       0x40 C:\Users\hlias\AppData\Local\Temp\ccrYPDvp.o
 .debug_frame   0x00001bc4      0x120 C:\Users\hlias\AppData\Local\Temp\ccfOUIpv.o
 .debug_frame   0x00001ce4      0x108 C:\Users\hlias\AppData\Local\Temp\ccMoubNy.o
 .debug_frame   0x00001dec       0x50 c:/program files (x86)/arm-none-eabi-gcc-4_6/bin/../lib/gcc/arm-none-eabi/4.6.2/armv7-m\libgcc.a(bpabi.o)
 .debug_frame   0x00001e3c      0x268 c:/program files (x86)/arm-none-eabi-gcc-4_6/bin/../lib/gcc/arm-none-eabi/4.6.2/armv7-m\libgcc.a(unwind-arm.o)
 .debug_frame   0x000020a4       0xec c:/program files (x86)/arm-none-eabi-gcc-4_6/bin/../lib/gcc/arm-none-eabi/4.6.2/armv7-m\libgcc.a(pr-support.o)
 .debug_frame   0x00002190       0x34 c:/program files (x86)/arm-none-eabi-gcc-4_6/bin/../lib/gcc/arm-none-eabi/4.6.2/armv7-m\libgcc.a(_divdi3.o)
 .debug_frame   0x000021c4       0x34 c:/program files (x86)/arm-none-eabi-gcc-4_6/bin/../lib/gcc/arm-none-eabi/4.6.2/armv7-m\libgcc.a(_udivdi3.o)
 .debug_frame   0x000021f8       0x2c c:/program files (x86)/arm-none-eabi-gcc-4_6/bin/../lib/gcc/arm-none-eabi/4.6.2/../../../../arm-none-eabi/lib/armv7-m\libg.a(lib_a-memcpy.o)
